(lp0
(lp1
(I0
I21
tp2
a(I2
I2
tp3
a(I0
I10
tp4
a(I2
I2
tp5
a(I0
I48
tp6
a(I2
I1
tp7
a(I0
I21
tp8
aa(lp9
(I4
I20
tp10
a(I0
I21
tp11
a(I1
I1
tp12
a(I0
I18
tp13
a(I1
I1
tp14
a(I0
I18
tp15
a(I1
I1
tp16
a(I0
I20
tp17
aa(lp18
(I4
I38
tp19
a(I0
I33
tp20
a(I2
I1
tp21
a(I0
I29
tp22
aa(lp23
(I4
I11
tp24
a(I0
I19
tp25
a(I1
I1
tp26
a(I0
I18
tp27
a(I1
I1
tp28
a(I0
I18
tp29
a(I1
I1
tp30
a(I0
I18
tp31
a(I1
I1
tp32
a(I0
I12
tp33
aa(lp34
(I4
I16
tp35
a(I0
I45
tp36
a(I1
I1
tp37
a(I0
I11
tp38
a(I4
I27
tp39
aa(lp40
(I0
I46
tp41
a(I2
I1
tp42
a(I0
I18
tp43
a(I4
I36
tp44
aa(lp45
(I0
I60
tp46
a(I1
I2
tp47
a(I0
I7
tp48
a(I1
I1
tp49
a(I0
I30
tp50
aa(lp51
(I0
I74
tp52
a(I1
I2
tp53
a(I0
I21
tp54
a(I4
I3
tp55
aa(lp56
(I0
I100
tp57
aa(lp58
(I0
I100
tp59
aa(lp60
(I0
I100
tp61
aa(lp62
(I0
I100
tp63
aa(lp64
(I0
I5
tp65
a(I2
I1
tp66
a(I0
I95
tp67
aa(lp68
(I0
I100
tp69
aa(lp70
(I4
I23
tp71
a(I0
I9
tp72
a(I1
I1
tp73
a(I0
I67
tp74
aa(lp75
(I0
I12
tp76
a(I1
I1
tp77
a(I0
I12
tp78
a(I1
I1
tp79
a(I0
I74
tp80
aa(lp81
(I0
I100
tp82
aa(lp83
(I0
I100
tp84
aa(lp85
(I4
I43
tp86
a(I0
I54
tp87
a(I4
I3
tp88
aa(lp89
(I0
I24
tp90
a(I2
I1
tp91
a(I0
I76
tp92
aa(lp93
(I0
I50
tp94
a(I4
I50
tp95
aa(lp96
(I0
I100
tp97
aa(lp98
(I0
I100
tp99
aa(lp100
(I0
I100
tp101
aa(lp102
(I0
I100
tp103
aa(lp104
(I0
I100
tp105
aa(lp106
(I0
I100
tp107
aa(lp108
(I0
I100
tp109
aa(lp110
(I0
I100
tp111
aa(lp112
(I0
I100
tp113
aa(lp114
(I4
I19
tp115
a(I0
I81
tp116
aa(lp117
(I0
I38
tp118
a(I1
I1
tp119
a(I0
I6
tp120
a(I1
I1
tp121
a(I0
I6
tp122
a(I1
I1
tp123
a(I0
I47
tp124
aa(lp125
(I4
I45
tp126
a(I0
I9
tp127
a(I1
I1
tp128
a(I0
I12
tp129
a(I1
I1
tp130
a(I0
I32
tp131
aa(lp132
(I4
I10
tp133
a(I0
I90
tp134
aa(lp135
(I0
I42
tp136
a(I4
I58
tp137
aa(lp138
(I0
I84
tp139
a(I4
I16
tp140
aa(lp141
(I0
I100
tp142
aa(lp143
(I0
I33
tp144
a(I1
I1
tp145
a(I0
I66
tp146
aa(lp147
(I4
I11
tp148
a(I0
I89
tp149
aa(lp150
(I0
I39
tp151
a(I1
I2
tp152
a(I0
I59
tp153
aa(lp154
(I4
I31
tp155
a(I0
I20
tp156
a(I1
I1
tp157
a(I0
I39
tp158
a(I1
I1
tp159
a(I0
I8
tp160
aa(lp161
(I0
I65
tp162
a(I1
I1
tp163
a(I0
I34
tp164
aa(lp165
(I0
I100
tp166
aa(lp167
(I0
I100
tp168
aa(lp169
(I4
I19
tp170
a(I0
I53
tp171
a(I2
I1
tp172
a(I0
I28
tp173
aa(lp174
(I0
I100
tp175
aa(lp176
(I0
I100
tp177
aa(lp178
(I0
I24
tp179
a(I2
I1
tp180
a(I0
I65
tp181
a(I1
I1
tp182
a(I0
I10
tp183
aa(lp184
(I4
I34
tp185
a(I0
I66
tp186
aa(lp187
(I0
I100
tp188
aa(lp189
(I0
I100
tp190
aa(lp191
(I0
I60
tp192
a(I4
I40
tp193
aa(lp194
(I0
I100
tp195
aa(lp196
(I0
I100
tp197
aa(lp198
(I0
I32
tp199
a(I1
I1
tp200
a(I0
I6
tp201
a(I1
I1
tp202
a(I0
I36
tp203
a(I1
I1
tp204
a(I0
I23
tp205
aa(lp206
(I0
I100
tp207
aa(lp208
(I0
I100
tp209
aa(lp210
(I0
I78
tp211
a(I1
I1
tp212
a(I0
I6
tp213
a(I1
I1
tp214
a(I0
I14
tp215
aa(lp216
(I0
I20
tp217
a(I2
I1
tp218
a(I0
I12
tp219
a(I1
I4
tp220
a(I0
I64
tp221
aa(lp222
(I0
I100
tp223
aa(lp224
(I0
I100
tp225
aa(lp226
(I0
I100
tp227
aa(lp228
(I0
I100
tp229
aa(lp230
(I0
I100
tp231
aa(lp232
(I0
I100
tp233
aa(lp234
(I0
I100
tp235
aa(lp236
(I0
I71
tp237
a(I1
I1
tp238
a(I0
I28
tp239
aa(lp240
(I0
I31
tp241
a(I1
I1
tp242
a(I0
I68
tp243
aa(lp244
(I0
I100
tp245
aa(lp246
(I0
I100
tp247
aa(lp248
(I4
I26
tp249
a(I0
I73
tp250
a(I4
I1
tp251
aa(lp252
(I0
I39
tp253
a(I4
I61
tp254
aa(lp255
(I0
I100
tp256
aa(lp257
(I0
I100
tp258
aa(lp259
(I4
I5
tp260
a(I0
I48
tp261
a(I4
I47
tp262
aa(lp263
(I0
I100
tp264
aa(lp265
(I4
I14
tp266
a(I0
I86
tp267
aa(lp268
(I0
I83
tp269
a(I4
I17
tp270
aa(lp271
(I0
I100
tp272
aa(lp273
(I0
I100
tp274
aa(lp275
(I0
I100
tp276
aa(lp277
(I0
I100
tp278
aa(lp279
(I4
I21
tp280
a(I0
I79
tp281
aa(lp282
(I0
I94
tp283
a(I4
I6
tp284
aa(lp285
(I4
I6
tp286
a(I0
I94
tp287
aa(lp288
(I0
I89
tp289
a(I4
I11
tp290
aa(lp291
(I0
I100
tp292
aa(lp293
(I0
I70
tp294
a(I1
I1
tp295
a(I0
I29
tp296
aa(lp297
(I0
I100
tp298
aa(lp299
(I0
I100
tp300
aa(lp301
(I0
I100
tp302
aa(lp303
(I0
I100
tp304
aa(lp305
(I0
I100
tp306
aa(lp307
(I0
I100
tp308
aa(lp309
(I0
I100
tp310
aa(lp311
(I0
I100
tp312
aa(lp313
(I4
I17
tp314
a(I0
I9
tp315
a(I1
I1
tp316
a(I0
I45
tp317
a(I1
I1
tp318
a(I0
I14
tp319
a(I4
I13
tp320
aa(lp321
(I4
I50
tp322
a(I0
I15
tp323
a(I1
I1
tp324
a(I0
I24
tp325
a(I4
I10
tp326
aa(lp327
(I4
I13
tp328
a(I0
I21
tp329
a(I4
I66
tp330
aa(lp331
(I0
I100
tp332
aa(lp333
(I0
I100
tp334
aa(lp335
(I0
I100
tp336
aa(lp337
(I0
I77
tp338
a(I4
I23
tp339
aa(lp340
(I0
I100
tp341
aa(lp342
(I0
I100
tp343
aa(lp344
(I4
I18
tp345
a(I0
I82
tp346
aa(lp347
(I0
I77
tp348
a(I4
I23
tp349
aa(lp350
(I0
I100
tp351
aa(lp352
(I0
I74
tp353
a(I4
I26
tp354
aa(lp355
(I0
I100
tp356
aa(lp357
(I0
I100
tp358
aa(lp359
(I0
I100
tp360
aa(lp361
(I0
I100
tp362
aa(lp363
(I0
I100
tp364
aa(lp365
(I0
I45
tp366
a(I1
I1
tp367
a(I0
I21
tp368
a(I4
I33
tp369
aa(lp370
(I0
I27
tp371
a(I2
I1
tp372
a(I0
I29
tp373
a(I1
I1
tp374
a(I0
I26
tp375
a(I1
I1
tp376
a(I0
I6
tp377
a(I1
I1
tp378
a(I0
I9
tp379
aa(lp380
(I0
I100
tp381
aa(lp382
(I0
I100
tp383
aa(lp384
(I0
I43
tp385
a(I1
I3
tp386
a(I0
I54
tp387
aa(lp388
(I0
I17
tp389
a(I2
I1
tp390
a(I0
I41
tp391
a(I4
I42
tp392
aa(lp393
(I0
I100
tp394
aa(lp395
(I0
I100
tp396
aa(lp397
(I0
I100
tp398
aa(lp399
(I0
I100
tp400
aa(lp401
(I0
I100
tp402
aa(lp403
(I0
I100
tp404
aa(lp405
(I0
I100
tp406
aa(lp407
(I0
I100
tp408
aa(lp409
(I0
I100
tp410
aa(lp411
(I0
I100
tp412
aa(lp413
(I4
I14
tp414
a(I0
I86
tp415
aa(lp416
(I0
I100
tp417
aa(lp418
(I0
I80
tp419
a(I4
I20
tp420
aa(lp421
(I0
I100
tp422
aa(lp423
(I4
I6
tp424
a(I0
I77
tp425
a(I4
I17
tp426
aa(lp427
(I0
I88
tp428
a(I1
I1
tp429
a(I0
I11
tp430
aa(lp431
(I0
I100
tp432
aa(lp433
(I0
I100
tp434
aa(lp435
(I4
I46
tp436
a(I0
I9
tp437
a(I1
I1
tp438
a(I0
I44
tp439
aa(lp440
(I0
I17
tp441
a(I1
I1
tp442
a(I0
I77
tp443
a(I4
I5
tp444
aa(lp445
(I0
I100
tp446
aa(lp447
(I4
I38
tp448
a(I0
I62
tp449
aa(lp450
(I0
I100
tp451
aa(lp452
(I0
I4
tp453
a(I1
I1
tp454
a(I0
I25
tp455
a(I1
I1
tp456
a(I0
I69
tp457
aa(lp458
(I0
I100
tp459
aa(lp460
(I0
I100
tp461
aa(lp462
(I4
I62
tp463
a(I0
I38
tp464
aa(lp465
(I4
I20
tp466
a(I0
I80
tp467
aa(lp468
(I4
I5
tp469
a(I0
I8
tp470
a(I2
I1
tp471
a(I0
I87
tp472
aa(lp473
(I0
I100
tp474
aa(lp475
(I0
I100
tp476
aa(lp477
(I0
I100
tp478
aa(lp479
(I4
I3
tp480
a(I0
I29
tp481
a(I2
I1
tp482
a(I0
I38
tp483
a(I1
I1
tp484
a(I0
I6
tp485
a(I1
I1
tp486
a(I0
I22
tp487
aa(lp488
(I0
I100
tp489
aa(lp490
(I4
I15
tp491
a(I0
I35
tp492
a(I2
I1
tp493
a(I0
I50
tp494
aa(lp495
(I0
I100
tp496
aa(lp497
(I0
I60
tp498
a(I1
I1
tp499
a(I0
I9
tp500
a(I2
I1
tp501
a(I0
I30
tp502
aa(lp503
(I4
I10
tp504
a(I0
I90
tp505
aa(lp506
(I0
I100
tp507
aa(lp508
(I0
I100
tp509
aa(lp510
(I0
I100
tp511
aa(lp512
(I0
I100
tp513
aa(lp514
(I0
I100
tp515
aa(lp516
(I0
I3
tp517
a(I2
I1
tp518
a(I0
I97
tp519
aa(lp520
(I0
I100
tp521
aa(lp522
(I0
I100
tp523
aa(lp524
(I0
I100
tp525
aa(lp526
(I0
I100
tp527
aa(lp528
(I0
I100
tp529
aa(lp530
(I0
I100
tp531
aa(lp532
(I0
I100
tp533
aa(lp534
(I0
I100
tp535
aa(lp536
(I0
I100
tp537
aa(lp538
(I0
I100
tp539
aa(lp540
(I0
I100
tp541
aa(lp542
(I0
I100
tp543
aa(lp544
(I0
I100
tp545
aa(lp546
(I0
I52
tp547
a(I2
I4
tp548
a(I0
I48
tp549
aa(lp550
(I0
I100
tp551
aa(lp552
(I0
I38
tp553
a(I2
I4
tp554
a(I0
I62
tp555
aa(lp556
(I4
I2
tp557
a(I0
I38
tp558
a(I1
I1
tp559
a(I0
I33
tp560
a(I1
I1
tp561
a(I0
I25
tp562
aa(lp563
(I4
I6
tp564
a(I0
I94
tp565
aa(lp566
(I4
I3
tp567
a(I0
I12
tp568
a(I1
I1
tp569
a(I0
I84
tp570
aa(lp571
(I0
I100
tp572
aa(lp573
(I4
I46
tp574
a(I0
I54
tp575
aa(lp576
(I0
I48
tp577
a(I4
I52
tp578
aa(lp579
(I0
I100
tp580
aa(lp581
(I0
I100
tp582
aa(lp583
(I4
I39
tp584
a(I0
I13
tp585
a(I2
I1
tp586
a(I0
I46
tp587
a(I4
I2
tp588
aa(lp589
(I0
I42
tp590
a(I4
I58
tp591
aa(lp592
(I0
I100
tp593
aa(lp594
(I0
I87
tp595
a(I4
I13
tp596
aa(lp597
(I0
I100
tp598
aa(lp599
(I0
I80
tp600
a(I1
I1
tp601
a(I0
I19
tp602
aa(lp603
(I0
I100
tp604
aa(lp605
(I0
I100
tp606
aa(lp607
(I0
I100
tp608
aa(lp609
(I0
I100
tp610
aa(lp611
(I0
I100
tp612
aa(lp613
(I0
I100
tp614
aa(lp615
(I0
I100
tp616
aa(lp617
(I0
I100
tp618
aa(lp619
(I4
I4
tp620
a(I0
I96
tp621
aa(lp622
(I0
I100
tp623
aa(lp624
(I4
I28
tp625
a(I0
I72
tp626
aa(lp627
(I0
I66
tp628
a(I4
I34
tp629
aa(lp630
(I0
I100
tp631
aa(lp632
(I0
I100
tp633
aa(lp634
(I0
I62
tp635
a(I1
I1
tp636
a(I0
I37
tp637
aa(lp638
(I4
I12
tp639
a(I0
I88
tp640
aa(lp641
(I0
I100
tp642
aa(lp643
(I0
I100
tp644
aa(lp645
(I0
I100
tp646
aa(lp647
(I0
I100
tp648
aa(lp649
(I0
I100
tp650
aa(lp651
(I0
I100
tp652
aa(lp653
(I0
I100
tp654
aa(lp655
(I0
I100
tp656
aa(lp657
(I0
I100
tp658
aa(lp659
(I4
I38
tp660
a(I0
I62
tp661
aa(lp662
(I0
I60
tp663
a(I4
I40
tp664
aa(lp665
(I0
I88
tp666
a(I4
I12
tp667
aa(lp668
(I0
I100
tp669
aa(lp670
(I0
I100
tp671
aa(lp672
(I0
I100
tp673
aa(lp674
(I0
I100
tp675
aa(lp676
(I4
I36
tp677
a(I0
I9
tp678
a(I1
I1
tp679
a(I0
I54
tp680
aa(lp681
(I0
I100
tp682
aa(lp683
(I0
I100
tp684
aa(lp685
(I0
I77
tp686
a(I4
I23
tp687
aa(lp688
(I0
I100
tp689
aa(lp690
(I0
I100
tp691
aa(lp692
(I0
I100
tp693
aa(lp694
(I0
I100
tp695
aa(lp696
(I0
I100
tp697
aa(lp698
(I0
I100
tp699
aa(lp700
(I0
I100
tp701
aa(lp702
(I4
I42
tp703
a(I0
I58
tp704
aa(lp705
(I0
I96
tp706
a(I4
I4
tp707
aa(lp708
(I0
I100
tp709
aa(lp710
(I0
I100
tp711
aa(lp712
(I0
I100
tp713
aa(lp714
(I0
I100
tp715
aa(lp716
(I4
I27
tp717
a(I0
I73
tp718
aa(lp719
(I0
I47
tp720
a(I4
I53
tp721
aa(lp722
(I0
I100
tp723
aa(lp724
(I0
I100
tp725
aa(lp726
(I0
I21
tp727
a(I1
I1
tp728
a(I0
I18
tp729
a(I1
I1
tp730
a(I0
I18
tp731
a(I1
I1
tp732
a(I0
I18
tp733
a(I1
I1
tp734
a(I0
I21
tp735
aa(lp736
(I4
I9
tp737
a(I0
I73
tp738
a(I1
I1
tp739
a(I0
I6
tp740
a(I1
I1
tp741
a(I0
I10
tp742
aa(lp743
(I0
I81
tp744
a(I2
I1
tp745
a(I0
I19
tp746
aa(lp747
(I0
I100
tp748
aa(lp749
(I4
I14
tp750
a(I0
I86
tp751
aa(lp752
(I0
I100
tp753
aa(lp754
(I0
I83
tp755
a(I4
I17
tp756
aa(lp757
(I0
I100
tp758
aa(lp759
(I0
I100
tp760
aa(lp761
(I0
I100
tp762
aa(lp763
(I0
I100
tp764
aa(lp765
(I0
I100
tp766
aa(lp767
(I0
I100
tp768
aa(lp769
(I4
I10
tp770
a(I0
I90
tp771
aa(lp772
(I0
I92
tp773
a(I4
I8
tp774
aa(lp775
(I0
I20
tp776
a(I1
I1
tp777
a(I0
I18
tp778
a(I1
I1
tp779
a(I0
I18
tp780
a(I1
I1
tp781
a(I0
I18
tp782
a(I1
I1
tp783
a(I0
I22
tp784
aa(lp785
(I4
I19
tp786
a(I0
I19
tp787
a(I1
I1
tp788
a(I0
I18
tp789
a(I1
I1
tp790
a(I0
I18
tp791
a(I1
I1
tp792
a(I0
I21
tp793
a(I4
I2
tp794
aa(lp795
(I0
I100
tp796
aa(lp797
(I0
I100
tp798
aa(lp799
(I0
I3
tp800
a(I2
I1
tp801
a(I0
I97
tp802
aa(lp803
(I0
I100
tp804
aa(lp805
(I0
I100
tp806
aa(lp807
(I0
I62
tp808
a(I1
I1
tp809
a(I0
I37
tp810
aa(lp811
(I0
I86
tp812
a(I4
I14
tp813
aa(lp814
(I0
I100
tp815
aa(lp816
(I0
I100
tp817
aa(lp818
(I0
I100
tp819
aa(lp820
(I0
I100
tp821
aa(lp822
(I0
I100
tp823
aa(lp824
(I0
I100
tp825
aa(lp826
(I0
I100
tp827
aa(lp828
(I0
I100
tp829
aa(lp830
(I0
I100
tp831
aa(lp832
(I4
I8
tp833
a(I0
I75
tp834
a(I2
I1
tp835
a(I0
I17
tp836
aa(lp837
(I0
I100
tp838
aa(lp839
(I0
I100
tp840
aa(lp841
(I0
I73
tp842
a(I4
I27
tp843
aa(lp844
(I4
I25
tp845
a(I0
I75
tp846
aa(lp847
(I0
I70
tp848
a(I4
I30
tp849
aa(lp850
(I0
I100
tp851
aa(lp852
(I4
I28
tp853
a(I0
I72
tp854
aa(lp855
(I4
I45
tp856
a(I0
I36
tp857
a(I1
I1
tp858
a(I0
I18
tp859
aa(lp860
(I0
I48
tp861
a(I4
I52
tp862
aa(lp863
(I0
I100
tp864
aa(lp865
(I0
I100
tp866
aa(lp867
(I0
I100
tp868
aa(lp869
(I0
I61
tp870
a(I4
I39
tp871
aa(lp872
(I0
I100
tp873
aa(lp874
(I0
I87
tp875
a(I4
I13
tp876
aa(lp877
(I4
I8
tp878
a(I0
I85
tp879
a(I4
I7
tp880
aa(lp881
(I4
I8
tp882
a(I0
I49
tp883
a(I2
I1
tp884
a(I0
I43
tp885
aa(lp886
(I0
I100
tp887
aa(lp888
(I4
I17
tp889
a(I0
I83
tp890
aa(lp891
(I0
I77
tp892
a(I4
I23
tp893
aa(lp894
(I0
I100
tp895
aa(lp896
(I0
I100
tp897
aa(lp898
(I4
I3
tp899
a(I0
I46
tp900
a(I4
I51
tp901
aa(lp902
(I0
I41
tp903
a(I2
I1
tp904
a(I0
I44
tp905
a(I1
I1
tp906
a(I0
I14
tp907
aa(lp908
(I0
I6
tp909
a(I1
I1
tp910
a(I0
I6
tp911
a(I1
I1
tp912
a(I0
I68
tp913
a(I4
I18
tp914
aa(lp915
(I0
I100
tp916
aa(lp917
(I0
I100
tp918
aa(lp919
(I0
I100
tp920
aa(lp921
(I0
I100
tp922
aa(lp923
(I0
I36
tp924
a(I2
I1
tp925
a(I0
I11
tp926
a(I4
I53
tp927
aa(lp928
(I4
I14
tp929
a(I0
I40
tp930
a(I1
I1
tp931
a(I0
I45
tp932
aa(lp933
(I0
I100
tp934
aa(lp935
(I0
I100
tp936
aa(lp937
(I0
I100
tp938
aa(lp939
(I0
I100
tp940
aa(lp941
(I0
I100
tp942
aa(lp943
(I0
I100
tp944
aa(lp945
(I0
I100
tp946
aa(lp947
(I0
I100
tp948
aa(lp949
(I4
I4
tp950
a(I0
I96
tp951
aa(lp952
(I0
I38
tp953
a(I1
I1
tp954
a(I0
I6
tp955
a(I1
I1
tp956
a(I0
I54
tp957
aa(lp958
(I4
I15
tp959
a(I0
I85
tp960
aa(lp961
(I0
I26
tp962
a(I2
I1
tp963
a(I0
I74
tp964
aa(lp965
(I4
I35
tp966
a(I0
I53
tp967
a(I2
I1
tp968
a(I0
I12
tp969
aa(lp970
(I0
I35
tp971
a(I1
I1
tp972
a(I0
I9
tp973
a(I1
I2
tp974
a(I0
I53
tp975
aa(lp976
(I4
I15
tp977
a(I0
I85
tp978
aa(lp979
(I0
I79
tp980
a(I4
I21
tp981
aa(lp982
(I0
I50
tp983
a(I2
I4
tp984
a(I0
I20
tp985
a(I2
I4
tp986
a(I0
I30
tp987
aa(lp988
(I0
I45
tp989
a(I1
I2
tp990
a(I0
I27
tp991
a(I1
I2
tp992
a(I0
I24
tp993
aa(lp994
(I4
I10
tp995
a(I0
I59
tp996
a(I1
I1
tp997
a(I0
I6
tp998
a(I1
I1
tp999
a(I0
I23
tp1000
aa(lp1001
(I0
I19
tp1002
a(I2
I1
tp1003
a(I0
I53
tp1004
a(I1
I1
tp1005
a(I0
I27
tp1006
aa(lp1007
(I4
I56
tp1008
a(I0
I43
tp1009
a(I4
I1
tp1010
aa(lp1011
(I0
I46
tp1012
a(I4
I54
tp1013
aa(lp1014
(I0
I100
tp1015
aa(lp1016
(I0
I100
tp1017
aa(lp1018
(I4
I55
tp1019
a(I0
I21
tp1020
a(I1
I1
tp1021
a(I0
I21
tp1022
a(I4
I2
tp1023
aa(lp1024
(I0
I77
tp1025
a(I4
I23
tp1026
aa(lp1027
(I0
I100
tp1028
aa(lp1029
(I0
I100
tp1030
aa(lp1031
(I0
I100
tp1032
aa(lp1033
(I0
I100
tp1034
aa(lp1035
(I0
I100
tp1036
aa(lp1037
(I0
I100
tp1038
aa(lp1039
(I0
I100
tp1040
aa(lp1041
(I0
I100
tp1042
aa(lp1043
(I0
I3
tp1044
a(I2
I1
tp1045
a(I0
I97
tp1046
aa(lp1047
(I0
I100
tp1048
aa(lp1049
(I0
I100
tp1050
aa(lp1051
(I0
I100
tp1052
aa(lp1053
(I0
I100
tp1054
aa(lp1055
(I0
I100
tp1056
aa(lp1057
(I4
I3
tp1058
a(I0
I48
tp1059
a(I2
I1
tp1060
a(I0
I49
tp1061
aa(lp1062
(I0
I12
tp1063
a(I2
I1
tp1064
a(I0
I46
tp1065
a(I1
I1
tp1066
a(I0
I6
tp1067
a(I1
I1
tp1068
a(I0
I34
tp1069
aa(lp1070
(I0
I100
tp1071
aa(lp1072
(I4
I14
tp1073
a(I0
I65
tp1074
a(I2
I4
tp1075
a(I0
I7
tp1076
a(I2
I4
tp1077
a(I0
I14
tp1078
aa(lp1079
(I0
I100
tp1080
aa(lp1081
(I0
I100
tp1082
aa(lp1083
(I0
I56
tp1084
a(I1
I2
tp1085
a(I0
I7
tp1086
a(I1
I1
tp1087
a(I0
I6
tp1088
a(I1
I1
tp1089
a(I0
I6
tp1090
a(I1
I1
tp1091
a(I0
I20
tp1092
aa(lp1093
(I0
I100
tp1094
aa(lp1095
(I0
I100
tp1096
aa(lp1097
(I0
I100
tp1098
aa(lp1099
(I0
I100
tp1100
aa(lp1101
(I0
I100
tp1102
aa(lp1103
(I0
I100
tp1104
aa(lp1105
(I0
I100
tp1106
aa(lp1107
(I0
I100
tp1108
aa(lp1109
(I0
I100
tp1110
aa(lp1111
(I0
I100
tp1112
aa(lp1113
(I0
I100
tp1114
aa(lp1115
(I4
I16
tp1116
a(I0
I20
tp1117
a(I1
I1
tp1118
a(I0
I19
tp1119
a(I1
I1
tp1120
a(I0
I18
tp1121
a(I1
I1
tp1122
a(I0
I24
tp1123
aa(lp1124
(I4
I13
tp1125
a(I0
I19
tp1126
a(I1
I1
tp1127
a(I0
I18
tp1128
a(I1
I1
tp1129
a(I0
I18
tp1130
a(I1
I1
tp1131
a(I0
I18
tp1132
a(I1
I1
tp1133
a(I0
I10
tp1134
aa(lp1135
(I0
I100
tp1136
aa(lp1137
(I0
I100
tp1138
aa(lp1139
(I0
I100
tp1140
aa(lp1141
(I0
I100
tp1142
aa(lp1143
(I0
I50
tp1144
a(I1
I1
tp1145
a(I0
I13
tp1146
a(I2
I1
tp1147
a(I0
I36
tp1148
aa(lp1149
(I0
I7
tp1150
a(I2
I1
tp1151
a(I0
I74
tp1152
a(I4
I19
tp1153
aa(lp1154
(I0
I100
tp1155
aa(lp1156
(I0
I100
tp1157
aa(lp1158
(I0
I100
tp1159
aa(lp1160
(I0
I100
tp1161
aa(lp1162
(I0
I100
tp1163
aa(lp1164
(I0
I100
tp1165
aa(lp1166
(I0
I100
tp1167
aa(lp1168
(I0
I12
tp1169
a(I2
I1
tp1170
a(I0
I25
tp1171
a(I1
I1
tp1172
a(I0
I12
tp1173
a(I1
I1
tp1174
a(I0
I39
tp1175
a(I1
I1
tp1176
a(I0
I9
tp1177
aa(lp1178
(I0
I100
tp1179
aa(lp1180
(I0
I32
tp1181
a(I1
I1
tp1182
a(I0
I31
tp1183
a(I1
I1
tp1184
a(I0
I35
tp1185
aa(lp1186
(I0
I100
tp1187
aa(lp1188
(I0
I100
tp1189
aa(lp1190
(I0
I100
tp1191
aa(lp1192
(I0
I100
tp1193
aa(lp1194
(I0
I100
tp1195
aa(lp1196
(I0
I100
tp1197
aa(lp1198
(I0
I100
tp1199
aa(lp1200
(I0
I100
tp1201
aa(lp1202
(I0
I100
tp1203
aa(lp1204
(I0
I100
tp1205
aa(lp1206
(I0
I100
tp1207
aa(lp1208
(I0
I100
tp1209
aa(lp1210
(I0
I20
tp1211
a(I1
I1
tp1212
a(I0
I58
tp1213
a(I2
I1
tp1214
a(I0
I21
tp1215
aa(lp1216
(I4
I10
tp1217
a(I0
I90
tp1218
aa(lp1219
(I0
I35
tp1220
a(I2
I1
tp1221
a(I0
I28
tp1222
a(I4
I37
tp1223
aa(lp1224
(I0
I84
tp1225
a(I4
I16
tp1226
aa(lp1227
(I0
I100
tp1228
aa(lp1229
(I0
I100
tp1230
aa(lp1231
(I0
I100
tp1232
aa(lp1233
(I0
I100
tp1234
aa(lp1235
(I4
I11
tp1236
a(I0
I18
tp1237
a(I2
I1
tp1238
a(I0
I43
tp1239
a(I1
I1
tp1240
a(I0
I12
tp1241
a(I1
I1
tp1242
a(I0
I14
tp1243
aa(lp1244
(I0
I70
tp1245
a(I4
I30
tp1246
aa(lp1247
(I4
I19
tp1248
a(I0
I81
tp1249
aa(lp1250
(I0
I14
tp1251
a(I1
I1
tp1252
a(I0
I10
tp1253
a(I1
I1
tp1254
a(I0
I36
tp1255
a(I2
I1
tp1256
a(I0
I38
tp1257
aa(lp1258
(I4
I26
tp1259
a(I0
I71
tp1260
a(I4
I3
tp1261
aa(lp1262
(I0
I89
tp1263
a(I4
I11
tp1264
aa(lp1265
(I0
I100
tp1266
aa(lp1267
(I0
I100
tp1268
aa(lp1269
(I4
I15
tp1270
a(I0
I21
tp1271
a(I1
I1
tp1272
a(I0
I17
tp1273
a(I1
I1
tp1274
a(I0
I19
tp1275
a(I1
I1
tp1276
a(I0
I21
tp1277
a(I4
I4
tp1278
aa(lp1279
(I0
I17
tp1280
a(I1
I1
tp1281
a(I0
I18
tp1282
a(I1
I1
tp1283
a(I0
I18
tp1284
a(I1
I1
tp1285
a(I0
I21
tp1286
a(I4
I23
tp1287
aa(lp1288
(I4
I1
tp1289
a(I0
I35
tp1290
a(I2
I1
tp1291
a(I0
I54
tp1292
a(I4
I10
tp1293
aa(lp1294
(I0
I5
tp1295
a(I2
I1
tp1296
a(I0
I95
tp1297
aa(lp1298
(I0
I100
tp1299
aa(lp1300
(I0
I100
tp1301
aa(lp1302
(I0
I100
tp1303
aa(lp1304
(I0
I100
tp1305
aa(lp1306
(I0
I100
tp1307
aa(lp1308
(I0
I100
tp1309
aa(lp1310
(I0
I100
tp1311
aa(lp1312
(I0
I100
tp1313
aa(lp1314
(I0
I100
tp1315
aa(lp1316
(I0
I75
tp1317
a(I4
I25
tp1318
aa(lp1319
(I4
I58
tp1320
a(I0
I42
tp1321
aa(lp1322
(I0
I36
tp1323
a(I4
I64
tp1324
aa(lp1325
(I0
I100
tp1326
aa(lp1327
(I0
I87
tp1328
a(I4
I13
tp1329
aa(lp1330
(I0
I100
tp1331
aa(lp1332
(I0
I100
tp1333
aa(lp1334
(I0
I100
tp1335
aa(lp1336
(I0
I100
tp1337
aa(lp1338
(I0
I18
tp1339
a(I1
I1
tp1340
a(I0
I30
tp1341
a(I1
I1
tp1342
a(I0
I50
tp1343
aa(lp1344
(I0
I26
tp1345
a(I2
I1
tp1346
a(I0
I49
tp1347
a(I2
I1
tp1348
a(I0
I25
tp1349
aa(lp1350
(I0
I60
tp1351
a(I2
I4
tp1352
a(I0
I14
tp1353
a(I2
I4
tp1354
a(I0
I12
tp1355
a(I2
I4
tp1356
a(I0
I14
tp1357
aa(lp1358
(I4
I12
tp1359
a(I0
I31
tp1360
a(I1
I1
tp1361
a(I0
I12
tp1362
a(I1
I1
tp1363
a(I0
I30
tp1364
a(I1
I1
tp1365
a(I0
I12
tp1366
aa(lp1367
(I0
I63
tp1368
a(I1
I1
tp1369
a(I0
I6
tp1370
a(I1
I1
tp1371
a(I0
I29
tp1372
aa(lp1373
(I4
I4
tp1374
a(I0
I78
tp1375
a(I4
I18
tp1376
aa(lp1377
(I4
I50
tp1378
a(I0
I50
tp1379
aa(lp1380
(I0
I49
tp1381
a(I4
I51
tp1382
aa(lp1383
(I0
I39
tp1384
a(I2
I1
tp1385
a(I0
I41
tp1386
a(I1
I1
tp1387
a(I0
I6
tp1388
a(I1
I1
tp1389
a(I0
I12
tp1390
aa(lp1391
(I0
I84
tp1392
a(I4
I16
tp1393
aa(lp1394
(I4
I15
tp1395
a(I0
I85
tp1396
aa(lp1397
(I0
I100
tp1398
aa(lp1399
(I0
I100
tp1400
aa(lp1401
(I4
I68
tp1402
a(I0
I32
tp1403
aa(lp1404
(I4
I11
tp1405
a(I0
I34
tp1406
a(I4
I55
tp1407
aa(lp1408
(I0
I100
tp1409
aa(lp1410
(I0
I100
tp1411
aa(lp1412
(I0
I73
tp1413
a(I4
I27
tp1414
aa(lp1415
(I0
I20
tp1416
a(I1
I1
tp1417
a(I0
I51
tp1418
a(I2
I1
tp1419
a(I0
I28
tp1420
aa(lp1421
(I0
I100
tp1422
aa(lp1423
(I0
I100
tp1424
aa(lp1425
(I0
I100
tp1426
aa(lp1427
(I0
I100
tp1428
aa(lp1429
(I0
I100
tp1430
aa(lp1431
(I0
I100
tp1432
aa(lp1433
(I0
I47
tp1434
a(I4
I53
tp1435
aa(lp1436
(I0
I100
tp1437
aa(lp1438
(I0
I100
tp1439
aa(lp1440
(I0
I100
tp1441
aa(lp1442
(I0
I81
tp1443
a(I4
I19
tp1444
aa(lp1445
(I4
I3
tp1446
a(I0
I31
tp1447
a(I1
I1
tp1448
a(I0
I65
tp1449
aa(lp1450
(I0
I33
tp1451
a(I2
I1
tp1452
a(I0
I32
tp1453
a(I4
I35
tp1454
aa(lp1455
(I0
I57
tp1456
a(I4
I43
tp1457
aa(lp1458
(I4
I64
tp1459
a(I0
I36
tp1460
aa(lp1461
(I0
I100
tp1462
aa(lp1463
(I0
I100
tp1464
aa(lp1465
(I0
I64
tp1466
a(I1
I2
tp1467
a(I0
I14
tp1468
a(I4
I20
tp1469
aa(lp1470
(I4
I13
tp1471
a(I0
I43
tp1472
a(I1
I1
tp1473
a(I0
I12
tp1474
a(I1
I1
tp1475
a(I0
I30
tp1476
aa(lp1477
(I0
I100
tp1478
aa(lp1479
(I0
I100
tp1480
aa(lp1481
(I0
I100
tp1482
aa(lp1483
(I0
I100
tp1484
aa(lp1485
(I0
I100
tp1486
aa(lp1487
(I0
I100
tp1488
aa(lp1489
(I0
I100
tp1490
aa(lp1491
(I0
I82
tp1492
a(I4
I18
tp1493
aa(lp1494
(I0
I100
tp1495
aa(lp1496
(I0
I100
tp1497
aa(lp1498
(I4
I31
tp1499
a(I0
I69
tp1500
aa(lp1501
(I0
I58
tp1502
a(I4
I42
tp1503
aa(lp1504
(I0
I72
tp1505
a(I2
I1
tp1506
a(I0
I28
tp1507
aa(lp1508
(I0
I100
tp1509
aa(lp1510
(I0
I100
tp1511
aa(lp1512
(I0
I100
tp1513
aa(lp1514
(I0
I100
tp1515
aa(lp1516
(I0
I100
tp1517
aa(lp1518
(I0
I24
tp1519
a(I2
I1
tp1520
a(I0
I42
tp1521
a(I2
I1
tp1522
a(I0
I7
tp1523
a(I1
I1
tp1524
a(I0
I6
tp1525
a(I1
I1
tp1526
a(I0
I19
tp1527
aa(lp1528
(I4
I30
tp1529
a(I0
I31
tp1530
a(I1
I1
tp1531
a(I0
I27
tp1532
a(I4
I11
tp1533
aa(lp1534
(I0
I72
tp1535
a(I4
I28
tp1536
aa(lp1537
(I0
I100
tp1538
aa(lp1539
(I0
I100
tp1540
aa(lp1541
(I4
I34
tp1542
a(I0
I59
tp1543
a(I4
I7
tp1544
aa(lp1545
(I0
I54
tp1546
a(I1
I1
tp1547
a(I0
I45
tp1548
aa(lp1549
(I4
I26
tp1550
a(I0
I29
tp1551
a(I1
I1
tp1552
a(I0
I44
tp1553
aa(lp1554
(I0
I100
tp1555
aa(lp1556
(I0
I100
tp1557
aa(lp1558
(I0
I100
tp1559
aa(lp1560
(I0
I100
tp1561
aa(lp1562
(I0
I100
tp1563
aa(lp1564
(I0
I100
tp1565
aa(lp1566
(I0
I100
tp1567
aa(lp1568
(I0
I53
tp1569
a(I2
I4
tp1570
a(I0
I47
tp1571
aa(lp1572
(I4
I51
tp1573
a(I0
I31
tp1574
a(I1
I1
tp1575
a(I0
I17
tp1576
aa(lp1577
(I0
I100
tp1578
aa(lp1579
(I0
I14
tp1580
a(I1
I1
tp1581
a(I0
I30
tp1582
a(I1
I1
tp1583
a(I0
I6
tp1584
a(I1
I1
tp1585
a(I0
I35
tp1586
a(I1
I1
tp1587
a(I0
I11
tp1588
aa(lp1589
(I0
I100
tp1590
aa(lp1591
(I4
I52
tp1592
a(I0
I9
tp1593
a(I1
I1
tp1594
a(I0
I38
tp1595
aa(lp1596
(I4
I66
tp1597
a(I0
I29
tp1598
a(I4
I5
tp1599
aa(lp1600
(I0
I100
tp1601
aa(lp1602
(I0
I76
tp1603
a(I4
I24
tp1604
aa(lp1605
(I0
I20
tp1606
a(I1
I1
tp1607
a(I0
I18
tp1608
a(I1
I1
tp1609
a(I0
I18
tp1610
a(I1
I1
tp1611
a(I0
I18
tp1612
a(I1
I1
tp1613
a(I0
I22
tp1614
aa(lp1615
(I0
I21
tp1616
a(I1
I1
tp1617
a(I0
I18
tp1618
a(I1
I1
tp1619
a(I0
I18
tp1620
a(I1
I1
tp1621
a(I0
I18
tp1622
a(I1
I1
tp1623
a(I0
I21
tp1624
aa(lp1625
(I0
I100
tp1626
aa(lp1627
(I0
I100
tp1628
aa(lp1629
(I0
I100
tp1630
aa(lp1631
(I0
I100
tp1632
aa(lp1633
(I0
I100
tp1634
aa(lp1635
(I0
I100
tp1636
aa(lp1637
(I0
I100
tp1638
aa(lp1639
(I0
I100
tp1640
aa(lp1641
(I0
I100
tp1642
aa(lp1643
(I0
I100
tp1644
aa(lp1645
(I0
I58
tp1646
a(I2
I3
tp1647
a(I0
I15
tp1648
a(I2
I3
tp1649
a(I0
I27
tp1650
aa(lp1651
(I4
I6
tp1652
a(I0
I67
tp1653
a(I1
I1
tp1654
a(I0
I26
tp1655
aa(lp1656
(I0
I100
tp1657
aa(lp1658
(I0
I100
tp1659
aa(lp1660
(I4
I59
tp1661
a(I0
I41
tp1662
aa(lp1663
(I0
I38
tp1664
a(I4
I62
tp1665
aa(lp1666
(I0
I100
tp1667
aa(lp1668
(I0
I100
tp1669
aa(lp1670
(I0
I100
tp1671
aa(lp1672
(I0
I100
tp1673
aa(lp1674
(I0
I100
tp1675
aa(lp1676
(I0
I100
tp1677
aa(lp1678
(I0
I100
tp1679
aa(lp1680
(I4
I38
tp1681
a(I0
I62
tp1682
aa(lp1683
(I0
I100
tp1684
aa(lp1685
(I0
I100
tp1686
aa(lp1687
(I0
I48
tp1688
a(I2
I1
tp1689
a(I0
I43
tp1690
a(I2
I1
tp1691
a(I0
I9
tp1692
aa(lp1693
(I0
I100
tp1694
aa(lp1695
(I0
I25
tp1696
a(I1
I2
tp1697
a(I0
I19
tp1698
a(I1
I2
tp1699
a(I0
I48
tp1700
a(I4
I4
tp1701
aa(lp1702
(I0
I12
tp1703
a(I1
I1
tp1704
a(I0
I6
tp1705
a(I1
I1
tp1706
a(I0
I65
tp1707
a(I4
I15
tp1708
aa(lp1709
(I4
I32
tp1710
a(I0
I68
tp1711
aa(lp1712
(I0
I58
tp1713
a(I1
I6
tp1714
a(I0
I21
tp1715
a(I4
I15
tp1716
aa(lp1717
(I4
I11
tp1718
a(I0
I44
tp1719
a(I1
I1
tp1720
a(I0
I44
tp1721
aa(lp1722
(I4
I15
tp1723
a(I0
I26
tp1724
a(I1
I1
tp1725
a(I0
I6
tp1726
a(I1
I1
tp1727
a(I0
I51
tp1728
aa(lp1729
(I0
I100
tp1730
aa(lp1731
(I0
I100
tp1732
aa(lp1733
(I0
I100
tp1734
aa(lp1735
(I4
I34
tp1736
a(I0
I48
tp1737
a(I2
I1
tp1738
a(I0
I18
tp1739
aa(lp1740
(I4
I4
tp1741
a(I0
I46
tp1742
a(I4
I50
tp1743
aa(lp1744
(I0
I100
tp1745
aa(lp1746
(I0
I100
tp1747
aa(lp1748
(I0
I100
tp1749
aa(lp1750
(I0
I100
tp1751
aa(lp1752
(I0
I100
tp1753
aa(lp1754
(I4
I46
tp1755
a(I0
I44
tp1756
a(I1
I1
tp1757
a(I0
I9
tp1758
aa(lp1759
(I0
I17
tp1760
a(I2
I1
tp1761
a(I0
I53
tp1762
a(I4
I30
tp1763
aa(lp1764
(I0
I84
tp1765
a(I4
I16
tp1766
aa(lp1767
(I0
I47
tp1768
a(I1
I1
tp1769
a(I0
I41
tp1770
a(I4
I11
tp1771
aa(lp1772
(I4
I52
tp1773
a(I0
I48
tp1774
aa(lp1775
(I0
I32
tp1776
a(I1
I1
tp1777
a(I0
I6
tp1778
a(I1
I1
tp1779
a(I0
I39
tp1780
a(I4
I21
tp1781
aa(lp1782
(I0
I84
tp1783
a(I4
I16
tp1784
aa(lp1785
(I4
I32
tp1786
a(I0
I68
tp1787
aa(lp1788
(I4
I40
tp1789
a(I0
I60
tp1790
aa(lp1791
(I0
I21
tp1792
a(I1
I1
tp1793
a(I0
I60
tp1794
a(I1
I1
tp1795
a(I0
I17
tp1796
aa(lp1797
(I0
I18
tp1798
a(I2
I1
tp1799
a(I0
I13
tp1800
a(I2
I1
tp1801
a(I0
I50
tp1802
a(I2
I1
tp1803
a(I0
I19
tp1804
aa(lp1805
(I4
I42
tp1806
a(I0
I44
tp1807
a(I1
I1
tp1808
a(I0
I13
tp1809
aa(lp1810
(I4
I21
tp1811
a(I0
I51
tp1812
a(I1
I2
tp1813
a(I0
I26
tp1814
aa(lp1815
(I0
I32
tp1816
a(I1
I1
tp1817
a(I0
I36
tp1818
a(I4
I31
tp1819
aa(lp1820
(I4
I36
tp1821
a(I0
I64
tp1822
aa(lp1823
(I0
I100
tp1824
aa(lp1825
(I0
I100
tp1826
aa(lp1827
(I0
I100
tp1828
aa(lp1829
(I0
I100
tp1830
aa(lp1831
(I0
I100
tp1832
aa(lp1833
(I0
I100
tp1834
aa(lp1835
(I0
I100
tp1836
aa(lp1837
(I4
I20
tp1838
a(I0
I80
tp1839
aa(lp1840
(I0
I79
tp1841
a(I4
I21
tp1842
aa(lp1843
(I0
I100
tp1844
aa(lp1845
(I0
I100
tp1846
aa(lp1847
(I4
I30
tp1848
a(I0
I70
tp1849
aa(lp1850
(I0
I100
tp1851
aa(lp1852
(I0
I100
tp1853
aa(lp1854
(I0
I100
tp1855
aa(lp1856
(I0
I68
tp1857
a(I1
I1
tp1858
a(I0
I8
tp1859
a(I2
I4
tp1860
a(I0
I23
tp1861
aa(lp1862
(I0
I100
tp1863
aa(lp1864
(I0
I38
tp1865
a(I1
I1
tp1866
a(I0
I7
tp1867
a(I1
I1
tp1868
a(I0
I35
tp1869
a(I4
I18
tp1870
aa(lp1871
(I0
I84
tp1872
a(I1
I1
tp1873
a(I0
I15
tp1874
aa(lp1875
(I0
I86
tp1876
a(I1
I1
tp1877
a(I0
I13
tp1878
aa(lp1879
(I0
I54
tp1880
a(I2
I2
tp1881
a(I0
I46
tp1882
aa(lp1883
(I0
I100
tp1884
aa(lp1885
(I0
I100
tp1886
aa(lp1887
(I0
I100
tp1888
aa(lp1889
(I0
I87
tp1890
a(I4
I13
tp1891
aa(lp1892
(I0
I100
tp1893
aa(lp1894
(I0
I100
tp1895
aa(lp1896
(I0
I100
tp1897
aa(lp1898
(I0
I100
tp1899
aa(lp1900
(I0
I100
tp1901
aa(lp1902
(I0
I100
tp1903
aa(lp1904
(I0
I100
tp1905
aa(lp1906
(I0
I100
tp1907
aa(lp1908
(I4
I31
tp1909
a(I0
I9
tp1910
a(I1
I1
tp1911
a(I0
I59
tp1912
aa(lp1913
(I0
I95
tp1914
a(I4
I5
tp1915
aa(lp1916
(I0
I48
tp1917
a(I1
I1
tp1918
a(I0
I47
tp1919
a(I2
I1
tp1920
a(I0
I4
tp1921
aa(lp1922
(I0
I100
tp1923
aa(lp1924
(I4
I4
tp1925
a(I0
I96
tp1926
aa(lp1927
(I0
I64
tp1928
a(I2
I1
tp1929
a(I0
I22
tp1930
a(I2
I1
tp1931
a(I0
I14
tp1932
aa(lp1933
(I0
I100
tp1934
aa(lp1935
(I0
I100
tp1936
aa(lp1937
(I0
I100
tp1938
aa(lp1939
(I0
I100
tp1940
aa(lp1941
(I0
I95
tp1942
a(I2
I1
tp1943
a(I0
I5
tp1944
aa(lp1945
(I0
I100
tp1946
aa(lp1947
(I0
I100
tp1948
aa(lp1949
(I0
I42
tp1950
a(I2
I1
tp1951
a(I0
I41
tp1952
a(I2
I1
tp1953
a(I0
I17
tp1954
aa(lp1955
(I0
I100
tp1956
aa(lp1957
(I0
I8
tp1958
a(I1
I1
tp1959
a(I0
I36
tp1960
a(I1
I1
tp1961
a(I0
I54
tp1962
aa(lp1963
(I4
I25
tp1964
a(I0
I72
tp1965
a(I4
I3
tp1966
aa(lp1967
(I0
I39
tp1968
a(I1
I1
tp1969
a(I0
I43
tp1970
a(I1
I1
tp1971
a(I0
I16
tp1972
aa(lp1973
(I0
I100
tp1974
aa(lp1975
(I0
I100
tp1976
aa(lp1977
(I0
I100
tp1978
aa(lp1979
(I0
I100
tp1980
aa(lp1981
(I0
I100
tp1982
aa(lp1983
(I4
I9
tp1984
a(I0
I91
tp1985
aa(lp1986
(I0
I100
tp1987
aa(lp1988
(I0
I95
tp1989
a(I4
I5
tp1990
aa(lp1991
(I0
I100
tp1992
aa(lp1993
(I0
I100
tp1994
aa(lp1995
(I0
I100
tp1996
aa(lp1997
(I0
I100
tp1998
aa(lp1999
(I0
I48
tp2000
a(I1
I1
tp2001
a(I0
I33
tp2002
a(I1
I7
tp2003
a(I0
I11
tp2004
aa(lp2005
(I4
I53
tp2006
a(I0
I17
tp2007
a(I2
I1
tp2008
a(I0
I30
tp2009
aa(lp2010
(I0
I100
tp2011
aa(lp2012
(I0
I100
tp2013
aa(lp2014
(I0
I48
tp2015
a(I1
I2
tp2016
a(I0
I14
tp2017
a(I2
I4
tp2018
a(I0
I36
tp2019
aa(lp2020
(I0
I100
tp2021
aa(lp2022
(I0
I100
tp2023
aa(lp2024
(I0
I100
tp2025
aa(lp2026
(I4
I39
tp2027
a(I0
I9
tp2028
a(I1
I1
tp2029
a(I0
I50
tp2030
a(I4
I1
tp2031
aa(lp2032
(I0
I31
tp2033
a(I1
I1
tp2034
a(I0
I27
tp2035
a(I4
I41
tp2036
aa(lp2037
(I0
I100
tp2038
aa(lp2039
(I0
I100
tp2040
aa(lp2041
(I0
I100
tp2042
aa(lp2043
(I0
I100
tp2044
aa(lp2045
(I0
I100
tp2046
aa(lp2047
(I0
I100
tp2048
aa(lp2049
(I0
I72
tp2050
a(I4
I28
tp2051
aa(lp2052
(I4
I46
tp2053
a(I0
I54
tp2054
aa(lp2055
(I0
I100
tp2056
aa(lp2057
(I0
I100
tp2058
aa(lp2059
(I4
I29
tp2060
a(I0
I38
tp2061
a(I1
I1
tp2062
a(I0
I32
tp2063
aa(lp2064
(I4
I8
tp2065
a(I0
I58
tp2066
a(I4
I34
tp2067
aa(lp2068
(I0
I100
tp2069
aa(lp2070
(I0
I100
tp2071
aa(lp2072
(I0
I100
tp2073
aa(lp2074
(I0
I100
tp2075
aa(lp2076
(I0
I100
tp2077
aa(lp2078
(I0
I100
tp2079
aa(lp2080
(I4
I12
tp2081
a(I0
I41
tp2082
a(I1
I1
tp2083
a(I0
I46
tp2084
aa(lp2085
(I0
I12
tp2086
a(I1
I1
tp2087
a(I0
I6
tp2088
a(I1
I1
tp2089
a(I0
I36
tp2090
a(I1
I1
tp2091
a(I0
I6
tp2092
a(I1
I1
tp2093
a(I0
I36
tp2094
aa(lp2095
(I0
I100
tp2096
aa(lp2097
(I0
I100
tp2098
aa(lp2099
(I0
I100
tp2100
aa(lp2101
(I0
I77
tp2102
a(I4
I23
tp2103
aa(lp2104
(I0
I48
tp2105
a(I2
I1
tp2106
a(I0
I17
tp2107
a(I2
I1
tp2108
a(I0
I35
tp2109
aa(lp2110
(I0
I60
tp2111
a(I1
I8
tp2112
a(I0
I32
tp2113
aa(lp2114
(I4
I28
tp2115
a(I0
I72
tp2116
aa(lp2117
(I0
I75
tp2118
a(I4
I25
tp2119
aa(lp2120
(I0
I44
tp2121
a(I1
I1
tp2122
a(I0
I38
tp2123
a(I2
I3
tp2124
a(I0
I17
tp2125
aa(lp2126
(I0
I57
tp2127
a(I2
I4
tp2128
a(I0
I43
tp2129
aa(lp2130
(I0
I100
tp2131
aa(lp2132
(I0
I100
tp2133
aa(lp2134
(I0
I100
tp2135
aa(lp2136
(I0
I100
tp2137
aa(lp2138
(I0
I100
tp2139
aa(lp2140
(I0
I100
tp2141
aa(lp2142
(I0
I17
tp2143
a(I2
I2
tp2144
a(I0
I10
tp2145
a(I2
I2
tp2146
a(I0
I54
tp2147
a(I2
I1
tp2148
a(I0
I19
tp2149
aa(lp2150
(I4
I21
tp2151
a(I0
I30
tp2152
a(I1
I1
tp2153
a(I0
I26
tp2154
a(I1
I1
tp2155
a(I0
I6
tp2156
a(I1
I1
tp2157
a(I0
I14
tp2158
aa(lp2159
(I0
I14
tp2160
a(I1
I1
tp2161
a(I0
I30
tp2162
a(I1
I1
tp2163
a(I0
I6
tp2164
a(I1
I1
tp2165
a(I0
I36
tp2166
a(I1
I1
tp2167
a(I0
I10
tp2168
aa(lp2169
(I4
I52
tp2170
a(I0
I48
tp2171
aa(lp2172
(I0
I100
tp2173
aa(lp2174
(I0
I98
tp2175
a(I4
I2
tp2176
aa(lp2177
(I0
I100
tp2178
aa(lp2179
(I0
I100
tp2180
aa(lp2181
(I0
I100
tp2182
aa(lp2183
(I0
I100
tp2184
aa(lp2185
(I0
I100
tp2186
aa(lp2187
(I0
I100
tp2188
aa(lp2189
(I0
I100
tp2190
aa(lp2191
(I0
I100
tp2192
aa(lp2193
(I0
I100
tp2194
aa(lp2195
(I0
I100
tp2196
aa(lp2197
(I4
I22
tp2198
a(I0
I78
tp2199
aa(lp2200
(I0
I100
tp2201
aa(lp2202
(I0
I21
tp2203
a(I1
I1
tp2204
a(I0
I18
tp2205
a(I1
I1
tp2206
a(I0
I18
tp2207
a(I1
I1
tp2208
a(I0
I18
tp2209
a(I1
I1
tp2210
a(I0
I21
tp2211
aa(lp2212
(I4
I13
tp2213
a(I0
I19
tp2214
a(I1
I1
tp2215
a(I0
I18
tp2216
a(I1
I1
tp2217
a(I0
I18
tp2218
a(I1
I1
tp2219
a(I0
I18
tp2220
a(I1
I1
tp2221
a(I0
I10
tp2222
aa(lp2223
(I0
I40
tp2224
a(I2
I4
tp2225
a(I0
I60
tp2226
aa(lp2227
(I4
I29
tp2228
a(I0
I39
tp2229
a(I2
I4
tp2230
a(I0
I32
tp2231
aa(lp2232
(I0
I20
tp2233
a(I1
I1
tp2234
a(I0
I58
tp2235
a(I2
I1
tp2236
a(I0
I21
tp2237
aa(lp2238
(I0
I85
tp2239
a(I4
I15
tp2240
aa(lp2241
(I0
I100
tp2242
aa(lp2243
(I0
I100
tp2244
aa(lp2245
(I0
I100
tp2246
aa(lp2247
(I0
I100
tp2248
aa(lp2249
(I0
I100
tp2250
aa(lp2251
(I0
I100
tp2252
aa(lp2253
(I0
I100
tp2254
aa(lp2255
(I0
I100
tp2256
aa(lp2257
(I0
I100
tp2258
aa(lp2259
(I0
I100
tp2260
aa(lp2261
(I4
I38
tp2262
a(I0
I62
tp2263
aa(lp2264
(I0
I100
tp2265
aa(lp2266
(I4
I36
tp2267
a(I0
I64
tp2268
aa(lp2269
(I0
I100
tp2270
aa(lp2271
(I0
I50
tp2272
a(I4
I50
tp2273
aa(lp2274
(I0
I12
tp2275
a(I1
I1
tp2276
a(I0
I87
tp2277
aa(lp2278
(I0
I100
tp2279
aa(lp2280
(I0
I100
tp2281
aa(lp2282
(I0
I100
tp2283
aa(lp2284
(I0
I100
tp2285
aa(lp2286
(I0
I100
tp2287
aa(lp2288
(I0
I62
tp2289
a(I1
I1
tp2290
a(I0
I6
tp2291
a(I1
I1
tp2292
a(I0
I30
tp2293
aa(lp2294
(I0
I51
tp2295
a(I2
I1
tp2296
a(I0
I49
tp2297
aa(lp2298
(I4
I3
tp2299
a(I0
I59
tp2300
a(I4
I38
tp2301
aa(lp2302
(I0
I100
tp2303
aa(lp2304
(I4
I38
tp2305
a(I0
I37
tp2306
a(I4
I25
tp2307
aa(lp2308
(I0
I39
tp2309
a(I1
I1
tp2310
a(I0
I60
tp2311
aa(lp2312
(I0
I100
tp2313
aa(lp2314
(I0
I100
tp2315
aa(lp2316
(I0
I100
tp2317
aa(lp2318
(I0
I100
tp2319
aa(lp2320
(I0
I100
tp2321
aa(lp2322
(I0
I100
tp2323
aa(lp2324
(I0
I89
tp2325
a(I4
I11
tp2326
aa(lp2327
(I0
I100
tp2328
aa(lp2329
(I0
I100
tp2330
aa(lp2331
(I0
I100
tp2332
aa(lp2333
(I0
I100
tp2334
aa(lp2335
(I0
I100
tp2336
aa(lp2337
(I0
I100
tp2338
aa(lp2339
(I0
I100
tp2340
aa(lp2341
(I0
I100
tp2342
aa(lp2343
(I0
I100
tp2344
aa(lp2345
(I0
I100
tp2346
aa(lp2347
(I0
I100
tp2348
aa(lp2349
(I0
I84
tp2350
a(I2
I1
tp2351
a(I0
I16
tp2352
aa(lp2353
(I0
I100
tp2354
aa(lp2355
(I0
I100
tp2356
aa(lp2357
(I0
I100
tp2358
aa(lp2359
(I4
I43
tp2360
a(I0
I57
tp2361
aa(lp2362
(I0
I39
tp2363
a(I2
I1
tp2364
a(I0
I31
tp2365
a(I4
I30
tp2366
aa(lp2367
(I4
I49
tp2368
a(I0
I25
tp2369
a(I1
I1
tp2370
a(I0
I25
tp2371
aa(lp2372
(I0
I100
tp2373
aa(lp2374
(I0
I100
tp2375
aa(lp2376
(I0
I100
tp2377
aa(lp2378
(I0
I100
tp2379
aa(lp2380
(I0
I100
tp2381
aa(lp2382
(I0
I100
tp2383
aa(lp2384
(I0
I100
tp2385
aa(lp2386
(I0
I100
tp2387
aa(lp2388
(I0
I100
tp2389
aa(lp2390
(I0
I100
tp2391
aa(lp2392
(I4
I10
tp2393
a(I0
I90
tp2394
aa(lp2395
(I0
I100
tp2396
aa(lp2397
(I0
I85
tp2398
a(I4
I15
tp2399
aa(lp2400
(I0
I100
tp2401
aa(lp2402
(I0
I100
tp2403
aa(lp2404
(I0
I100
tp2405
aa(lp2406
(I0
I100
tp2407
aa(lp2408
(I0
I100
tp2409
aa(lp2410
(I0
I100
tp2411
aa(lp2412
(I0
I85
tp2413
a(I4
I15
tp2414
aa(lp2415
(I0
I100
tp2416
aa(lp2417
(I0
I100
tp2418
aa(lp2419
(I0
I86
tp2420
a(I1
I1
tp2421
a(I0
I13
tp2422
aa(lp2423
(I0
I100
tp2424
aa(lp2425
(I0
I100
tp2426
aa(lp2427
(I0
I100
tp2428
aa(lp2429
(I4
I16
tp2430
a(I0
I23
tp2431
a(I2
I1
tp2432
a(I0
I44
tp2433
a(I1
I1
tp2434
a(I0
I16
tp2435
aa(lp2436
(I0
I62
tp2437
a(I1
I1
tp2438
a(I0
I9
tp2439
a(I4
I28
tp2440
aa(lp2441
(I0
I51
tp2442
a(I1
I1
tp2443
a(I0
I48
tp2444
aa(lp2445
(I4
I34
tp2446
a(I0
I35
tp2447
a(I4
I31
tp2448
aa(lp2449
(I4
I4
tp2450
a(I0
I96
tp2451
aa(lp2452
(I0
I100
tp2453
aa(lp2454
(I0
I100
tp2455
aa(lp2456
(I0
I100
tp2457
aa(lp2458
(I0
I100
tp2459
aa(lp2460
(I0
I100
tp2461
aa(lp2462
(I4
I61
tp2463
a(I0
I39
tp2464
aa(lp2465
(I4
I7
tp2466
a(I0
I73
tp2467
a(I2
I1
tp2468
a(I0
I18
tp2469
a(I4
I2
tp2470
aa(lp2471
(I0
I100
tp2472
aa(lp2473
(I0
I100
tp2474
aa(lp2475
(I0
I80
tp2476
a(I2
I4
tp2477
a(I0
I20
tp2478
aa(lp2479
(I0
I90
tp2480
a(I4
I10
tp2481
aa(lp2482
(I0
I100
tp2483
aa(lp2484
(I0
I100
tp2485
aa(lp2486
(I0
I100
tp2487
aa(lp2488
(I0
I24
tp2489
a(I4
I76
tp2490
aa(lp2491
(I0
I100
tp2492
aa(lp2493
(I0
I100
tp2494
aa(lp2495
(I0
I91
tp2496
a(I1
I1
tp2497
a(I0
I8
tp2498
aa(lp2499
(I4
I32
tp2500
a(I0
I36
tp2501
a(I1
I1
tp2502
a(I0
I6
tp2503
a(I1
I1
tp2504
a(I0
I24
tp2505
aa(lp2506
(I0
I100
tp2507
aa(lp2508
(I0
I100
tp2509
aa(lp2510
(I0
I100
tp2511
aa(lp2512
(I0
I100
tp2513
aa(lp2514
(I0
I100
tp2515
aa(lp2516
(I0
I100
tp2517
aa(lp2518
(I0
I100
tp2519
aa(lp2520
(I0
I100
tp2521
aa(lp2522
(I4
I2
tp2523
a(I0
I98
tp2524
aa(lp2525
(I0
I100
tp2526
aa(lp2527
(I0
I100
tp2528
aa(lp2529
(I0
I100
tp2530
aa(lp2531
(I0
I100
tp2532
aa(lp2533
(I0
I100
tp2534
aa(lp2535
(I4
I26
tp2536
a(I0
I74
tp2537
aa(lp2538
(I0
I100
tp2539
aa(lp2540
(I4
I37
tp2541
a(I0
I8
tp2542
a(I1
I1
tp2543
a(I0
I54
tp2544
aa(lp2545
(I0
I100
tp2546
aa(lp2547
(I0
I100
tp2548
aa(lp2549
(I0
I100
tp2550
aa(lp2551
(I0
I100
tp2552
aa(lp2553
(I0
I100
tp2554
aa(lp2555
(I0
I100
tp2556
aa(lp2557
(I0
I100
tp2558
aa(lp2559
(I0
I100
tp2560
aa(lp2561
(I0
I100
tp2562
aa(lp2563
(I4
I38
tp2564
a(I0
I53
tp2565
a(I2
I1
tp2566
a(I0
I9
tp2567
aa(lp2568
(I0
I100
tp2569
aa(lp2570
(I4
I20
tp2571
a(I0
I72
tp2572
a(I4
I8
tp2573
aa(lp2574
(I0
I100
tp2575
aa(lp2576
(I0
I100
tp2577
aa(lp2578
(I0
I100
tp2579
aa(lp2580
(I0
I100
tp2581
aa(lp2582
(I0
I44
tp2583
a(I1
I1
tp2584
a(I0
I15
tp2585
a(I4
I40
tp2586
aa(lp2587
(I0
I100
tp2588
aa(lp2589
(I0
I16
tp2590
a(I2
I1
tp2591
a(I0
I53
tp2592
a(I4
I31
tp2593
aa(lp2594
(I0
I100
tp2595
aa(lp2596
(I4
I71
tp2597
a(I0
I29
tp2598
aa(lp2599
(I0
I100
tp2600
aa(lp2601
(I4
I23
tp2602
a(I0
I77
tp2603
aa(lp2604
(I0
I93
tp2605
a(I4
I7
tp2606
aa(lp2607
(I0
I100
tp2608
aa(lp2609
(I4
I52
tp2610
a(I0
I48
tp2611
aa(lp2612
(I0
I55
tp2613
a(I4
I45
tp2614
aa(lp2615
(I0
I100
tp2616
aa(lp2617
(I0
I100
tp2618
aa(lp2619
(I0
I100
tp2620
aa(lp2621
(I0
I100
tp2622
aa(lp2623
(I0
I100
tp2624
aa(lp2625
(I0
I100
tp2626
aa(lp2627
(I0
I43
tp2628
a(I1
I1
tp2629
a(I0
I53
tp2630
a(I4
I3
tp2631
aa(lp2632
(I0
I56
tp2633
a(I2
I1
tp2634
a(I0
I11
tp2635
a(I2
I1
tp2636
a(I0
I33
tp2637
aa(lp2638
(I0
I26
tp2639
a(I2
I4
tp2640
a(I0
I12
tp2641
a(I1
I1
tp2642
a(I0
I61
tp2643
aa(lp2644
(I0
I100
tp2645
aa(lp2646
(I0
I28
tp2647
a(I2
I1
tp2648
a(I0
I72
tp2649
aa(lp2650
(I4
I2
tp2651
a(I0
I98
tp2652
aa(lp2653
(I0
I100
tp2654
aa(lp2655
(I0
I97
tp2656
a(I4
I3
tp2657
aa(lp2658
(I0
I100
tp2659
aa(lp2660
(I0
I100
tp2661
aa(lp2662
(I4
I13
tp2663
a(I0
I87
tp2664
aa(lp2665
(I0
I77
tp2666
a(I4
I23
tp2667
aa(lp2668
(I0
I100
tp2669
aa(lp2670
(I0
I100
tp2671
aa(lp2672
(I0
I100
tp2673
aa(lp2674
(I0
I100
tp2675
aa(lp2676
(I0
I100
tp2677
aa(lp2678
(I0
I100
tp2679
aa(lp2680
(I0
I100
tp2681
aa(lp2682
(I0
I100
tp2683
aa(lp2684
(I0
I100
tp2685
aa(lp2686
(I0
I100
tp2687
aa(lp2688
(I0
I100
tp2689
aa(lp2690
(I0
I100
tp2691
aa(lp2692
(I4
I37
tp2693
a(I0
I53
tp2694
a(I4
I10
tp2695
aa(lp2696
(I0
I33
tp2697
a(I2
I1
tp2698
a(I0
I49
tp2699
a(I1
I1
tp2700
a(I0
I17
tp2701
aa(lp2702
(I0
I36
tp2703
a(I1
I1
tp2704
a(I0
I29
tp2705
a(I4
I34
tp2706
aa(lp2707
(I4
I36
tp2708
a(I0
I54
tp2709
a(I4
I10
tp2710
aa(lp2711
(I0
I100
tp2712
aa(lp2713
(I4
I10
tp2714
a(I0
I54
tp2715
a(I1
I1
tp2716
a(I0
I35
tp2717
aa(lp2718
(I0
I100
tp2719
aa(lp2720
(I0
I21
tp2721
a(I1
I1
tp2722
a(I0
I16
tp2723
a(I1
I1
tp2724
a(I0
I53
tp2725
a(I2
I1
tp2726
a(I0
I8
tp2727
aa(lp2728
(I0
I100
tp2729
aa(lp2730
(I0
I100
tp2731
aa(lp2732
(I0
I100
tp2733
aa(lp2734
(I0
I100
tp2735
aa(lp2736
(I0
I100
tp2737
aa(lp2738
(I0
I75
tp2739
a(I4
I25
tp2740
aa(lp2741
(I4
I56
tp2742
a(I0
I44
tp2743
aa(lp2744
(I4
I33
tp2745
a(I0
I8
tp2746
a(I1
I1
tp2747
a(I0
I45
tp2748
a(I1
I1
tp2749
a(I0
I12
tp2750
aa(lp2751
(I0
I100
tp2752
aa(lp2753
(I0
I22
tp2754
a(I1
I1
tp2755
a(I0
I6
tp2756
a(I1
I1
tp2757
a(I0
I46
tp2758
a(I1
I1
tp2759
a(I0
I6
tp2760
a(I1
I1
tp2761
a(I0
I6
tp2762
a(I1
I1
tp2763
a(I0
I9
tp2764
aa(lp2765
(I0
I100
tp2766
aa(lp2767
(I0
I100
tp2768
aa(lp2769
(I0
I100
tp2770
aa(lp2771
(I4
I3
tp2772
a(I0
I37
tp2773
a(I1
I1
tp2774
a(I0
I46
tp2775
a(I4
I13
tp2776
aa(lp2777
(I0
I100
tp2778
aa(lp2779
(I0
I100
tp2780
aa(lp2781
(I4
I22
tp2782
a(I0
I11
tp2783
a(I2
I1
tp2784
a(I0
I67
tp2785
aa(lp2786
(I0
I100
tp2787
aa(lp2788
(I0
I100
tp2789
aa(lp2790
(I0
I100
tp2791
aa(lp2792
(I0
I100
tp2793
aa(lp2794
(I0
I100
tp2795
aa(lp2796
(I4
I4
tp2797
a(I0
I71
tp2798
a(I4
I25
tp2799
aa(lp2800
(I4
I45
tp2801
a(I0
I55
tp2802
aa(lp2803
(I0
I100
tp2804
aa(lp2805
(I0
I10
tp2806
a(I2
I1
tp2807
a(I0
I90
tp2808
aa(lp2809
(I0
I49
tp2810
a(I1
I1
tp2811
a(I0
I6
tp2812
a(I1
I1
tp2813
a(I0
I6
tp2814
a(I1
I1
tp2815
a(I0
I36
tp2816
aa(lp2817
(I4
I55
tp2818
a(I0
I30
tp2819
a(I1
I1
tp2820
a(I0
I14
tp2821
aa(lp2822
(I4
I4
tp2823
a(I0
I11
tp2824
a(I2
I1
tp2825
a(I0
I85
tp2826
aa(lp2827
(I0
I100
tp2828
aa(lp2829
(I0
I100
tp2830
aa(lp2831
(I0
I100
tp2832
aa(lp2833
(I0
I100
tp2834
aa(lp2835
(I0
I100
tp2836
aa(lp2837
(I0
I100
tp2838
aa(lp2839
(I0
I100
tp2840
aa(lp2841
(I0
I32
tp2842
a(I1
I1
tp2843
a(I0
I15
tp2844
a(I1
I1
tp2845
a(I0
I51
tp2846
aa(lp2847
(I0
I100
tp2848
aa(lp2849
(I0
I80
tp2850
a(I2
I4
tp2851
a(I0
I20
tp2852
aa(lp2853
(I4
I2
tp2854
a(I0
I22
tp2855
a(I4
I76
tp2856
aa(lp2857
(I4
I48
tp2858
a(I0
I52
tp2859
aa(lp2860
(I0
I100
tp2861
aa(lp2862
(I4
I5
tp2863
a(I0
I42
tp2864
a(I4
I53
tp2865
aa(lp2866
(I0
I100
tp2867
aa(lp2868
(I0
I100
tp2869
aa(lp2870
(I0
I100
tp2871
aa(lp2872
(I0
I100
tp2873
aa(lp2874
(I0
I100
tp2875
aa(lp2876
(I0
I95
tp2877
a(I4
I5
tp2878
aa(lp2879
(I0
I100
tp2880
aa(lp2881
(I4
I27
tp2882
a(I0
I23
tp2883
a(I2
I1
tp2884
a(I0
I41
tp2885
a(I4
I9
tp2886
aa(lp2887
(I0
I45
tp2888
a(I1
I1
tp2889
a(I0
I6
tp2890
a(I1
I1
tp2891
a(I0
I33
tp2892
a(I2
I1
tp2893
a(I0
I14
tp2894
aa(lp2895
(I4
I34
tp2896
a(I0
I66
tp2897
aa(lp2898
(I0
I100
tp2899
aa(lp2900
(I0
I100
tp2901
aa(lp2902
(I0
I12
tp2903
a(I1
I1
tp2904
a(I0
I6
tp2905
a(I1
I1
tp2906
a(I0
I80
tp2907
aa(lp2908
(I4
I10
tp2909
a(I0
I71
tp2910
a(I4
I19
tp2911
aa(lp2912
(I4
I6
tp2913
a(I0
I71
tp2914
a(I2
I4
tp2915
a(I0
I10
tp2916
a(I1
I1
tp2917
a(I0
I12
tp2918
aa(lp2919
(I4
I20
tp2920
a(I0
I80
tp2921
aa(lp2922
(I0
I100
tp2923
aa(lp2924
(I0
I100
tp2925
aa(lp2926
(I0
I100
tp2927
aa(lp2928
(I0
I100
tp2929
aa(lp2930
(I0
I100
tp2931
aa(lp2932
(I0
I100
tp2933
aa(lp2934
(I0
I100
tp2935
aa(lp2936
(I0
I100
tp2937
aa(lp2938
(I0
I100
tp2939
aa(lp2940
(I0
I100
tp2941
aa(lp2942
(I4
I24
tp2943
a(I0
I60
tp2944
a(I2
I1
tp2945
a(I0
I16
tp2946
aa(lp2947
(I0
I100
tp2948
aa(lp2949
(I0
I25
tp2950
a(I1
I1
tp2951
a(I0
I36
tp2952
a(I1
I1
tp2953
a(I0
I37
tp2954
aa(lp2955
(I0
I100
tp2956
aa(lp2957
(I0
I100
tp2958
aa(lp2959
(I0
I100
tp2960
aa(lp2961
(I0
I100
tp2962
aa(lp2963
(I0
I100
tp2964
aa(lp2965
(I0
I100
tp2966
aa(lp2967
(I0
I100
tp2968
aa(lp2969
(I0
I100
tp2970
aa(lp2971
(I0
I100
tp2972
aa(lp2973
(I0
I100
tp2974
aa(lp2975
(I4
I8
tp2976
a(I0
I61
tp2977
a(I1
I2
tp2978
a(I0
I29
tp2979
aa(lp2980
(I0
I12
tp2981
a(I1
I1
tp2982
a(I0
I6
tp2983
a(I1
I1
tp2984
a(I0
I63
tp2985
a(I4
I17
tp2986
aa(lp2987
(I0
I100
tp2988
aa(lp2989
(I4
I24
tp2990
a(I0
I44
tp2991
a(I1
I1
tp2992
a(I0
I12
tp2993
a(I1
I1
tp2994
a(I0
I18
tp2995
aa(lp2996
(I0
I100
tp2997
aa(lp2998
(I0
I83
tp2999
a(I2
I4
tp3000
a(I0
I6
tp3001
a(I2
I4
tp3002
a(I0
I11
tp3003
aa(lp3004
(I0
I100
tp3005
aa(lp3006
(I0
I100
tp3007
aa(lp3008
(I0
I100
tp3009
aa(lp3010
(I0
I100
tp3011
aa(lp3012
(I4
I24
tp3013
a(I0
I76
tp3014
aa(lp3015
(I4
I22
tp3016
a(I0
I53
tp3017
a(I2
I1
tp3018
a(I0
I25
tp3019
aa(lp3020
(I0
I26
tp3021
a(I4
I74
tp3022
aa(lp3023
(I0
I100
tp3024
aa(lp3025
(I0
I65
tp3026
a(I1
I1
tp3027
a(I0
I34
tp3028
aa(lp3029
(I0
I100
tp3030
aa(lp3031
(I0
I100
tp3032
aa(lp3033
(I0
I100
tp3034
aa(lp3035
(I4
I41
tp3036
a(I0
I24
tp3037
a(I2
I1
tp3038
a(I0
I35
tp3039
aa(lp3040
(I0
I77
tp3041
a(I2
I1
tp3042
a(I0
I23
tp3043
aa(lp3044
(I0
I100
tp3045
aa(lp3046
(I4
I2
tp3047
a(I0
I24
tp3048
a(I2
I1
tp3049
a(I0
I10
tp3050
a(I2
I1
tp3051
a(I0
I34
tp3052
a(I2
I4
tp3053
a(I0
I30
tp3054
aa(lp3055
(I0
I100
tp3056
aa(lp3057
(I0
I7
tp3058
a(I2
I1
tp3059
a(I0
I23
tp3060
a(I2
I1
tp3061
a(I0
I23
tp3062
a(I2
I1
tp3063
a(I0
I38
tp3064
a(I1
I1
tp3065
a(I0
I8
tp3066
aa(lp3067
(I0
I100
tp3068
aa(lp3069
(I0
I100
tp3070
aa(lp3071
(I0
I100
tp3072
aa(lp3073
(I0
I100
tp3074
aa(lp3075
(I0
I100
tp3076
aa(lp3077
(I0
I100
tp3078
aa(lp3079
(I0
I100
tp3080
aa(lp3081
(I0
I100
tp3082
aa(lp3083
(I0
I100
tp3084
aa(lp3085
(I0
I100
tp3086
aa(lp3087
(I0
I100
tp3088
aa(lp3089
(I0
I100
tp3090
aa(lp3091
(I0
I100
tp3092
aa(lp3093
(I0
I100
tp3094
aa(lp3095
(I0
I100
tp3096
aa(lp3097
(I0
I100
tp3098
aa(lp3099
(I4
I15
tp3100
a(I0
I85
tp3101
aa(lp3102
(I0
I85
tp3103
a(I4
I15
tp3104
aa(lp3105
(I0
I100
tp3106
aa(lp3107
(I0
I100
tp3108
aa(lp3109
(I0
I100
tp3110
aa(lp3111
(I0
I100
tp3112
aa(lp3113
(I0
I100
tp3114
aa(lp3115
(I0
I100
tp3116
aa(lp3117
(I0
I100
tp3118
aa(lp3119
(I0
I100
tp3120
aa(lp3121
(I0
I100
tp3122
aa(lp3123
(I0
I100
tp3124
aa(lp3125
(I0
I100
tp3126
aa(lp3127
(I0
I100
tp3128
aa(lp3129
(I0
I100
tp3130
aa(lp3131
(I0
I100
tp3132
aa(lp3133
(I0
I100
tp3134
aa(lp3135
(I0
I100
tp3136
aa(lp3137
(I0
I100
tp3138
aa(lp3139
(I0
I100
tp3140
aa(lp3141
(I0
I100
tp3142
aa(lp3143
(I0
I100
tp3144
aa(lp3145
(I0
I100
tp3146
aa(lp3147
(I0
I100
tp3148
aa(lp3149
(I0
I100
tp3150
aa(lp3151
(I0
I100
tp3152
aa(lp3153
(I4
I54
tp3154
a(I0
I46
tp3155
aa(lp3156
(I0
I18
tp3157
a(I2
I1
tp3158
a(I0
I52
tp3159
a(I4
I30
tp3160
aa(lp3161
(I0
I100
tp3162
aa(lp3163
(I0
I100
tp3164
aa(lp3165
(I0
I100
tp3166
aa(lp3167
(I0
I100
tp3168
aa(lp3169
(I0
I100
tp3170
aa(lp3171
(I0
I100
tp3172
aa(lp3173
(I4
I9
tp3174
a(I0
I60
tp3175
a(I2
I1
tp3176
a(I0
I7
tp3177
a(I1
I1
tp3178
a(I0
I23
tp3179
aa(lp3180
(I0
I25
tp3181
a(I1
I1
tp3182
a(I0
I6
tp3183
a(I1
I1
tp3184
a(I0
I62
tp3185
a(I4
I5
tp3186
aa(lp3187
(I0
I20
tp3188
a(I1
I2
tp3189
a(I0
I34
tp3190
a(I1
I1
tp3191
a(I0
I6
tp3192
a(I1
I1
tp3193
a(I0
I6
tp3194
a(I1
I1
tp3195
a(I0
I29
tp3196
aa(lp3197
(I0
I30
tp3198
a(I4
I70
tp3199
aa(lp3200
(I0
I100
tp3201
aa(lp3202
(I0
I100
tp3203
aa(lp3204
(I0
I100
tp3205
aa(lp3206
(I0
I100
tp3207
aa(lp3208
(I0
I100
tp3209
aa(lp3210
(I4
I48
tp3211
a(I0
I52
tp3212
aa(lp3213
(I0
I100
tp3214
aa(lp3215
(I0
I100
tp3216
aa(lp3217
(I0
I34
tp3218
a(I1
I1
tp3219
a(I0
I65
tp3220
aa(lp3221
(I0
I100
tp3222
aa(lp3223
(I4
I14
tp3224
a(I0
I86
tp3225
aa(lp3226
(I0
I83
tp3227
a(I4
I17
tp3228
aa(lp3229
(I4
I4
tp3230
a(I0
I19
tp3231
a(I1
I1
tp3232
a(I0
I18
tp3233
a(I1
I1
tp3234
a(I0
I18
tp3235
a(I1
I1
tp3236
a(I0
I18
tp3237
a(I1
I1
tp3238
a(I0
I19
tp3239
aa(lp3240
(I4
I9
tp3241
a(I0
I19
tp3242
a(I1
I1
tp3243
a(I0
I18
tp3244
a(I1
I1
tp3245
a(I0
I18
tp3246
a(I1
I1
tp3247
a(I0
I18
tp3248
a(I1
I1
tp3249
a(I0
I14
tp3250
aa(lp3251
(I0
I100
tp3252
aa(lp3253
(I0
I100
tp3254
aa(lp3255
(I4
I33
tp3256
a(I0
I53
tp3257
a(I2
I1
tp3258
a(I0
I14
tp3259
aa(lp3260
(I0
I10
tp3261
a(I1
I1
tp3262
a(I0
I6
tp3263
a(I1
I1
tp3264
a(I0
I6
tp3265
a(I1
I1
tp3266
a(I0
I70
tp3267
a(I4
I5
tp3268
aa(lp3269
(I4
I48
tp3270
a(I0
I11
tp3271
a(I2
I2
tp3272
a(I0
I41
tp3273
aa(lp3274
(I0
I19
tp3275
a(I1
I1
tp3276
a(I0
I36
tp3277
a(I2
I1
tp3278
a(I0
I19
tp3279
a(I4
I25
tp3280
aa(lp3281
(I0
I100
tp3282
aa(lp3283
(I0
I100
tp3284
aa(lp3285
(I0
I100
tp3286
aa(lp3287
(I0
I100
tp3288
aa(lp3289
(I0
I60
tp3290
a(I2
I1
tp3291
a(I0
I40
tp3292
aa(lp3293
(I0
I100
tp3294
aa(lp3295
(I0
I100
tp3296
aa(lp3297
(I0
I100
tp3298
aa(lp3299
(I0
I100
tp3300
aa(lp3301
(I0
I100
tp3302
aa(lp3303
(I0
I100
tp3304
aa(lp3305
(I0
I100
tp3306
aa(lp3307
(I0
I100
tp3308
aa(lp3309
(I0
I100
tp3310
aa(lp3311
(I0
I100
tp3312
aa(lp3313
(I4
I30
tp3314
a(I0
I70
tp3315
aa(lp3316
(I0
I100
tp3317
aa(lp3318
(I0
I100
tp3319
aa(lp3320
(I0
I100
tp3321
aa(lp3322
(I0
I100
tp3323
aa(lp3324
(I0
I100
tp3325
aa(lp3326
(I0
I100
tp3327
aa(lp3328
(I4
I15
tp3329
a(I0
I38
tp3330
a(I1
I1
tp3331
a(I0
I34
tp3332
a(I2
I1
tp3333
a(I0
I12
tp3334
aa(lp3335
(I0
I100
tp3336
aa(lp3337
(I4
I17
tp3338
a(I0
I83
tp3339
aa(lp3340
(I0
I100
tp3341
aa(lp3342
(I0
I100
tp3343
aa(lp3344
(I0
I100
tp3345
aa(lp3346
(I0
I100
tp3347
aa(lp3348
(I0
I100
tp3349
aa(lp3350
(I4
I26
tp3351
a(I0
I65
tp3352
a(I4
I9
tp3353
aa(lp3354
(I0
I11
tp3355
a(I2
I1
tp3356
a(I0
I36
tp3357
a(I4
I53
tp3358
aa(lp3359
(I4
I14
tp3360
a(I0
I31
tp3361
a(I1
I1
tp3362
a(I0
I6
tp3363
a(I1
I1
tp3364
a(I0
I6
tp3365
a(I1
I1
tp3366
a(I0
I40
tp3367
aa(lp3368
(I4
I21
tp3369
a(I0
I13
tp3370
a(I1
I1
tp3371
a(I0
I61
tp3372
a(I4
I4
tp3373
aa(lp3374
(I0
I24
tp3375
a(I2
I1
tp3376
a(I0
I58
tp3377
a(I1
I1
tp3378
a(I0
I6
tp3379
a(I1
I1
tp3380
a(I0
I10
tp3381
aa(lp3382
(I0
I45
tp3383
a(I2
I1
tp3384
a(I0
I55
tp3385
aa(lp3386
(I0
I100
tp3387
aa(lp3388
(I0
I100
tp3389
aa(lp3390
(I0
I100
tp3391
aa(lp3392
(I4
I54
tp3393
a(I0
I38
tp3394
a(I1
I1
tp3395
a(I0
I7
tp3396
aa(lp3397
(I0
I42
tp3398
a(I4
I58
tp3399
aa(lp3400
(I0
I100
tp3401
aa(lp3402
(I0
I100
tp3403
aa(lp3404
(I0
I100
tp3405
aa(lp3406
(I0
I100
tp3407
aa(lp3408
(I0
I91
tp3409
a(I4
I9
tp3410
aa(lp3411
(I0
I100
tp3412
aa(lp3413
(I0
I100
tp3414
aa(lp3415
(I0
I100
tp3416
aa(lp3417
(I0
I94
tp3418
a(I4
I6
tp3419
aa(lp3420
(I0
I32
tp3421
a(I1
I1
tp3422
a(I0
I20
tp3423
a(I2
I4
tp3424
a(I0
I6
tp3425
a(I1
I1
tp3426
a(I0
I6
tp3427
a(I1
I1
tp3428
a(I0
I33
tp3429
aa(lp3430
(I0
I62
tp3431
a(I2
I1
tp3432
a(I0
I38
tp3433
aa(lp3434
(I0
I100
tp3435
aa(lp3436
(I0
I100
tp3437
aa(lp3438
(I0
I100
tp3439
aa(lp3440
(I0
I100
tp3441
aa(lp3442
(I4
I4
tp3443
a(I0
I96
tp3444
aa(lp3445
(I0
I100
tp3446
aa(lp3447
(I0
I100
tp3448
aa(lp3449
(I0
I100
tp3450
aa(lp3451
(I0
I100
tp3452
aa(lp3453
(I0
I100
tp3454
aa(lp3455
(I0
I100
tp3456
aa(lp3457
(I0
I100
tp3458
aa(lp3459
(I0
I20
tp3460
a(I1
I1
tp3461
a(I0
I6
tp3462
a(I1
I1
tp3463
a(I0
I6
tp3464
a(I1
I1
tp3465
a(I0
I6
tp3466
a(I1
I1
tp3467
a(I0
I58
tp3468
aa(lp3469
(I0
I32
tp3470
a(I2
I4
tp3471
a(I0
I14
tp3472
a(I2
I4
tp3473
a(I0
I54
tp3474
aa(lp3475
(I0
I100
tp3476
aa(lp3477
(I0
I100
tp3478
aa(lp3479
(I0
I100
tp3480
aa(lp3481
(I0
I100
tp3482
aa(lp3483
(I0
I53
tp3484
a(I1
I1
tp3485
a(I0
I46
tp3486
aa(lp3487
(I0
I19
tp3488
a(I2
I1
tp3489
a(I0
I50
tp3490
a(I2
I4
tp3491
a(I0
I8
tp3492
a(I2
I4
tp3493
a(I0
I23
tp3494
aa(lp3495
(I0
I44
tp3496
a(I1
I1
tp3497
a(I0
I55
tp3498
aa(lp3499
(I0
I100
tp3500
aa(lp3501
(I0
I100
tp3502
aa(lp3503
(I4
I43
tp3504
a(I0
I57
tp3505
aa(lp3506
(I0
I54
tp3507
a(I4
I46
tp3508
aa(lp3509
(I0
I100
tp3510
aa(lp3511
(I0
I100
tp3512
aa(lp3513
(I0
I100
tp3514
aa(lp3515
(I0
I100
tp3516
aa(lp3517
(I4
I18
tp3518
a(I0
I82
tp3519
aa(lp3520
(I0
I100
tp3521
aa(lp3522
(I0
I100
tp3523
aa(lp3524
(I0
I100
tp3525
aa(lp3526
(I0
I91
tp3527
a(I4
I9
tp3528
aa(lp3529
(I0
I100
tp3530
aa(lp3531
(I4
I13
tp3532
a(I0
I58
tp3533
a(I1
I1
tp3534
a(I0
I28
tp3535
aa(lp3536
(I0
I100
tp3537
aa(lp3538
(I4
I53
tp3539
a(I0
I27
tp3540
a(I1
I1
tp3541
a(I0
I19
tp3542
aa(lp3543
(I0
I100
tp3544
aa(lp3545
(I0
I100
tp3546
aa(lp3547
(I4
I3
tp3548
a(I0
I72
tp3549
a(I4
I25
tp3550
aa(lp3551
(I4
I77
tp3552
a(I0
I23
tp3553
aa(lp3554
(I0
I100
tp3555
aa(lp3556
(I4
I6
tp3557
a(I0
I61
tp3558
a(I1
I1
tp3559
a(I0
I6
tp3560
a(I1
I1
tp3561
a(I0
I25
tp3562
aa(lp3563
(I0
I50
tp3564
a(I1
I1
tp3565
a(I0
I49
tp3566
aa(lp3567
(I4
I6
tp3568
a(I0
I86
tp3569
a(I1
I1
tp3570
a(I0
I7
tp3571
aa(lp3572
(I4
I18
tp3573
a(I0
I78
tp3574
a(I4
I4
tp3575
aa(lp3576
(I0
I50
tp3577
a(I1
I1
tp3578
a(I0
I49
tp3579
aa(lp3580
(I0
I9
tp3581
a(I1
I1
tp3582
a(I0
I6
tp3583
a(I1
I1
tp3584
a(I0
I48
tp3585
a(I4
I35
tp3586
aa(lp3587
(I0
I100
tp3588
aa(lp3589
(I0
I100
tp3590
aa(lp3591
(I0
I100
tp3592
aa(lp3593
(I0
I100
tp3594
aa(lp3595
(I0
I100
tp3596
aa(lp3597
(I0
I100
tp3598
aa(lp3599
(I0
I100
tp3600
aa(lp3601
(I0
I100
tp3602
aa(lp3603
(I0
I100
tp3604
aa(lp3605
(I0
I100
tp3606
aa(lp3607
(I4
I7
tp3608
a(I0
I60
tp3609
a(I4
I33
tp3610
aa(lp3611
(I4
I70
tp3612
a(I0
I22
tp3613
a(I4
I8
tp3614
aa(lp3615
(I0
I100
tp3616
aa(lp3617
(I4
I7
tp3618
a(I0
I65
tp3619
a(I2
I1
tp3620
a(I0
I28
tp3621
aa(lp3622
(I4
I15
tp3623
a(I0
I55
tp3624
a(I4
I30
tp3625
aa(lp3626
(I4
I50
tp3627
a(I0
I43
tp3628
a(I1
I1
tp3629
a(I0
I6
tp3630
aa(lp3631
(I0
I67
tp3632
a(I2
I4
tp3633
a(I0
I33
tp3634
aa(lp3635
(I0
I100
tp3636
aa(lp3637
(I0
I100
tp3638
aa(lp3639
(I0
I100
tp3640
aa(lp3641
(I0
I100
tp3642
aa(lp3643
(I0
I100
tp3644
aa(lp3645
(I0
I100
tp3646
aa(lp3647
(I0
I100
tp3648
aa(lp3649
(I0
I100
tp3650
aa(lp3651
(I4
I45
tp3652
a(I0
I55
tp3653
aa(lp3654
(I0
I50
tp3655
a(I4
I50
tp3656
aa(lp3657
(I0
I35
tp3658
a(I2
I1
tp3659
a(I0
I47
tp3660
a(I1
I1
tp3661
a(I0
I6
tp3662
a(I1
I1
tp3663
a(I0
I10
tp3664
aa(lp3665
(I0
I14
tp3666
a(I1
I1
tp3667
a(I0
I12
tp3668
a(I1
I1
tp3669
a(I0
I45
tp3670
a(I4
I27
tp3671
aa(lp3672
(I0
I100
tp3673
aa(lp3674
(I0
I100
tp3675
aa(lp3676
(I4
I7
tp3677
a(I0
I93
tp3678
aa(lp3679
(I0
I100
tp3680
aa(lp3681
(I4
I19
tp3682
a(I0
I61
tp3683
a(I1
I1
tp3684
a(I0
I19
tp3685
aa(lp3686
(I0
I14
tp3687
a(I1
I1
tp3688
a(I0
I70
tp3689
a(I4
I15
tp3690
aa(lp3691
(I0
I100
tp3692
aa(lp3693
(I0
I100
tp3694
aa(lp3695
(I0
I100
tp3696
aa(lp3697
(I0
I100
tp3698
aa(lp3699
(I0
I100
tp3700
aa(lp3701
(I0
I100
tp3702
aa(lp3703
(I0
I100
tp3704
aa(lp3705
(I0
I100
tp3706
aa(lp3707
(I0
I100
tp3708
aa(lp3709
(I0
I100
tp3710
aa(lp3711
(I0
I100
tp3712
aa(lp3713
(I0
I100
tp3714
aa(lp3715
(I4
I11
tp3716
a(I0
I89
tp3717
aa(lp3718
(I4
I13
tp3719
a(I0
I18
tp3720
a(I2
I1
tp3721
a(I0
I69
tp3722
aa(lp3723
(I4
I28
tp3724
a(I0
I72
tp3725
aa(lp3726
(I0
I100
tp3727
aa(lp3728
(I0
I36
tp3729
a(I2
I4
tp3730
a(I0
I40
tp3731
a(I1
I1
tp3732
a(I0
I23
tp3733
aa(lp3734
(I0
I7
tp3735
a(I1
I1
tp3736
a(I0
I6
tp3737
a(I1
I1
tp3738
a(I0
I43
tp3739
a(I2
I3
tp3740
a(I0
I42
tp3741
aa(lp3742
(I4
I6
tp3743
a(I0
I70
tp3744
a(I4
I24
tp3745
aa(lp3746
(I4
I18
tp3747
a(I0
I50
tp3748
a(I1
I1
tp3749
a(I0
I31
tp3750
aa(lp3751
(I0
I100
tp3752
aa(lp3753
(I0
I100
tp3754
aa(lp3755
(I0
I100
tp3756
aa(lp3757
(I0
I77
tp3758
a(I4
I23
tp3759
aa(lp3760
(I4
I4
tp3761
a(I0
I80
tp3762
a(I2
I3
tp3763
a(I0
I16
tp3764
aa(lp3765
(I0
I77
tp3766
a(I1
I1
tp3767
a(I0
I6
tp3768
a(I1
I1
tp3769
a(I0
I15
tp3770
aa(lp3771
(I4
I11
tp3772
a(I0
I59
tp3773
a(I4
I30
tp3774
aa(lp3775
(I0
I21
tp3776
a(I1
I1
tp3777
a(I0
I18
tp3778
a(I1
I1
tp3779
a(I0
I21
tp3780
a(I1
I1
tp3781
a(I0
I18
tp3782
a(I1
I1
tp3783
a(I0
I18
tp3784
aa(lp3785
(I4
I40
tp3786
a(I0
I22
tp3787
a(I4
I38
tp3788
aa(lp3789
(I4
I75
tp3790
a(I0
I25
tp3791
aa(lp3792
(I0
I100
tp3793
aa(lp3794
(I4
I13
tp3795
a(I0
I54
tp3796
a(I1
I2
tp3797
a(I0
I31
tp3798
aa(lp3799
(I4
I57
tp3800
a(I0
I24
tp3801
a(I2
I1
tp3802
a(I0
I19
tp3803
aa(lp3804
(I0
I29
tp3805
a(I4
I71
tp3806
aa(lp3807
(I0
I100
tp3808
aa(lp3809
(I0
I100
tp3810
aa(lp3811
(I4
I6
tp3812
a(I0
I66
tp3813
a(I2
I1
tp3814
a(I0
I10
tp3815
a(I2
I1
tp3816
a(I0
I18
tp3817
aa(lp3818
(I0
I100
tp3819
aa(lp3820
(I0
I100
tp3821
aa(lp3822
(I0
I100
tp3823
aa(lp3824
(I0
I100
tp3825
aa(lp3826
(I0
I100
tp3827
aa(lp3828
(I0
I100
tp3829
aa(lp3830
(I4
I4
tp3831
a(I0
I96
tp3832
aa(lp3833
(I4
I9
tp3834
a(I0
I89
tp3835
a(I4
I2
tp3836
aa(lp3837
(I0
I69
tp3838
a(I4
I31
tp3839
aa(lp3840
(I4
I7
tp3841
a(I0
I93
tp3842
aa(lp3843
(I4
I33
tp3844
a(I0
I67
tp3845
aa(lp3846
(I0
I100
tp3847
aa(lp3848
(I0
I100
tp3849
aa(lp3850
(I0
I100
tp3851
aa(lp3852
(I0
I100
tp3853
aa(lp3854
(I0
I100
tp3855
aa(lp3856
(I0
I100
tp3857
aa(lp3858
(I4
I13
tp3859
a(I0
I58
tp3860
a(I1
I1
tp3861
a(I0
I28
tp3862
aa(lp3863
(I4
I74
tp3864
a(I0
I26
tp3865
aa(lp3866
(I4
I10
tp3867
a(I0
I56
tp3868
a(I2
I1
tp3869
a(I0
I11
tp3870
a(I2
I1
tp3871
a(I0
I23
tp3872
aa(lp3873
(I0
I85
tp3874
a(I2
I3
tp3875
a(I0
I15
tp3876
aa(lp3877
(I4
I17
tp3878
a(I0
I43
tp3879
a(I1
I1
tp3880
a(I0
I12
tp3881
a(I1
I1
tp3882
a(I0
I26
tp3883
aa(lp3884
(I4
I13
tp3885
a(I0
I16
tp3886
a(I1
I1
tp3887
a(I0
I6
tp3888
a(I1
I1
tp3889
a(I0
I6
tp3890
a(I1
I1
tp3891
a(I0
I6
tp3892
a(I1
I1
tp3893
a(I0
I9
tp3894
a(I1
I1
tp3895
a(I0
I6
tp3896
a(I1
I1
tp3897
a(I0
I32
tp3898
aa(lp3899
(I0
I37
tp3900
a(I1
I1
tp3901
a(I0
I6
tp3902
a(I1
I1
tp3903
a(I0
I46
tp3904
a(I2
I1
tp3905
a(I0
I9
tp3906
aa(lp3907
(I4
I4
tp3908
a(I0
I73
tp3909
a(I1
I2
tp3910
a(I0
I21
tp3911
aa(lp3912
(I0
I100
tp3913
aa(lp3914
(I4
I8
tp3915
a(I0
I40
tp3916
a(I1
I1
tp3917
a(I0
I43
tp3918
a(I1
I1
tp3919
a(I0
I7
tp3920
aa(lp3921
(I4
I29
tp3922
a(I0
I32
tp3923
a(I1
I1
tp3924
a(I0
I38
tp3925
aa(lp3926
(I0
I100
tp3927
aa(lp3928
(I4
I7
tp3929
a(I0
I93
tp3930
aa(lp3931
(I0
I100
tp3932
aa(lp3933
(I0
I78
tp3934
a(I2
I1
tp3935
a(I0
I22
tp3936
aa(lp3937
(I0
I100
tp3938
aa(lp3939
(I0
I100
tp3940
aa(lp3941
(I0
I100
tp3942
aa(lp3943
(I4
I7
tp3944
a(I0
I93
tp3945
aa(lp3946
(I4
I21
tp3947
a(I0
I79
tp3948
aa(lp3949
(I0
I100
tp3950
aa(lp3951
(I0
I100
tp3952
aa(lp3953
(I0
I100
tp3954
aa(lp3955
(I0
I100
tp3956
aa(lp3957
(I0
I100
tp3958
aa(lp3959
(I0
I100
tp3960
aa(lp3961
(I0
I100
tp3962
aa(lp3963
(I0
I100
tp3964
aa(lp3965
(I4
I5
tp3966
a(I0
I48
tp3967
a(I4
I47
tp3968
aa(lp3969
(I4
I80
tp3970
a(I0
I20
tp3971
aa(lp3972
(I0
I100
tp3973
aa(lp3974
(I0
I100
tp3975
aa(lp3976
(I0
I50
tp3977
a(I1
I2
tp3978
a(I0
I12
tp3979
a(I1
I2
tp3980
a(I0
I34
tp3981
aa(lp3982
(I0
I100
tp3983
aa(lp3984
(I4
I6
tp3985
a(I0
I52
tp3986
a(I1
I1
tp3987
a(I0
I41
tp3988
aa(lp3989
(I4
I26
tp3990
a(I0
I34
tp3991
a(I2
I1
tp3992
a(I0
I40
tp3993
aa(lp3994
(I0
I70
tp3995
a(I4
I30
tp3996
aa(lp3997
(I4
I70
tp3998
a(I0
I30
tp3999
aa(lp4000
(I0
I100
tp4001
aa(lp4002
(I4
I59
tp4003
a(I0
I41
tp4004
aa(lp4005
(I0
I33
tp4006
a(I4
I67
tp4007
aa(lp4008
(I0
I100
tp4009
aa(lp4010
(I0
I91
tp4011
a(I4
I9
tp4012
aa(lp4013
(I0
I100
tp4014
aa(lp4015
(I0
I100
tp4016
aa(lp4017
(I4
I4
tp4018
a(I0
I29
tp4019
a(I2
I1
tp4020
a(I0
I34
tp4021
a(I2
I1
tp4022
a(I0
I33
tp4023
aa(lp4024
(I0
I100
tp4025
aa(lp4026
(I4
I9
tp4027
a(I0
I59
tp4028
a(I2
I1
tp4029
a(I0
I7
tp4030
a(I1
I1
tp4031
a(I0
I6
tp4032
a(I1
I1
tp4033
a(I0
I17
tp4034
aa(lp4035
(I4
I16
tp4036
a(I0
I17
tp4037
a(I2
I1
tp4038
a(I0
I13
tp4039
a(I2
I1
tp4040
a(I0
I50
tp4041
a(I2
I1
tp4042
a(I0
I4
tp4043
aa(lp4044
(I4
I29
tp4045
a(I0
I71
tp4046
aa(lp4047
(I0
I100
tp4048
aa(lp4049
(I0
I100
tp4050
aa(lp4051
(I0
I100
tp4052
aa(lp4053
(I0
I100
tp4054
aa(lp4055
(I4
I5
tp4056
a(I0
I89
tp4057
a(I2
I1
tp4058
a(I0
I6
tp4059
aa(lp4060
(I4
I14
tp4061
a(I0
I20
tp4062
a(I1
I1
tp4063
a(I0
I5
tp4064
a(I1
I1
tp4065
a(I0
I7
tp4066
a(I1
I1
tp4067
a(I0
I23
tp4068
a(I1
I1
tp4069
a(I0
I15
tp4070
a(I4
I12
tp4071
aa(lp4072
(I0
I55
tp4073
a(I4
I45
tp4074
aa(lp4075
(I4
I42
tp4076
a(I0
I58
tp4077
aa(lp4078
(I4
I2
tp4079
a(I0
I44
tp4080
a(I1
I1
tp4081
a(I0
I30
tp4082
a(I1
I1
tp4083
a(I0
I6
tp4084
a(I1
I1
tp4085
a(I0
I6
tp4086
a(I1
I1
tp4087
a(I0
I8
tp4088
aa(lp4089
(I0
I100
tp4090
aa(lp4091
(I4
I3
tp4092
a(I0
I94
tp4093
a(I4
I3
tp4094
aa(lp4095
(I4
I36
tp4096
a(I0
I53
tp4097
a(I1
I2
tp4098
a(I0
I9
tp4099
aa(lp4100
(I0
I100
tp4101
aa(lp4102
(I0
I100
tp4103
aa(lp4104
(I4
I6
tp4105
a(I0
I94
tp4106
aa(lp4107
(I4
I9
tp4108
a(I0
I64
tp4109
a(I1
I1
tp4110
a(I0
I12
tp4111
a(I1
I1
tp4112
a(I0
I13
tp4113
aa(lp4114
(I0
I100
tp4115
aa(lp4116
(I0
I100
tp4117
aa(lp4118
(I4
I13
tp4119
a(I0
I87
tp4120
aa(lp4121
(I0
I79
tp4122
a(I4
I21
tp4123
aa(lp4124
(I4
I5
tp4125
a(I0
I49
tp4126
a(I1
I1
tp4127
a(I0
I45
tp4128
aa(lp4129
(I4
I25
tp4130
a(I0
I75
tp4131
aa(lp4132
(I0
I100
tp4133
aa(lp4134
(I0
I100
tp4135
aa(lp4136
(I0
I100
tp4137
aa(lp4138
(I0
I100
tp4139
aa(lp4140
(I4
I19
tp4141
a(I0
I56
tp4142
a(I2
I3
tp4143
a(I0
I15
tp4144
a(I2
I3
tp4145
a(I0
I10
tp4146
aa(lp4147
(I0
I100
tp4148
aa(lp4149
(I0
I20
tp4150
a(I1
I1
tp4151
a(I0
I63
tp4152
a(I4
I16
tp4153
aa(lp4154
(I0
I100
tp4155
aa(lp4156
(I4
I25
tp4157
a(I0
I43
tp4158
a(I1
I1
tp4159
a(I0
I12
tp4160
a(I1
I1
tp4161
a(I0
I18
tp4162
aa(lp4163
(I4
I21
tp4164
a(I0
I38
tp4165
a(I2
I1
tp4166
a(I0
I41
tp4167
aa(lp4168
(I0
I35
tp4169
a(I1
I1
tp4170
a(I0
I39
tp4171
a(I1
I1
tp4172
a(I0
I24
tp4173
aa(lp4174
(I0
I8
tp4175
a(I1
I1
tp4176
a(I0
I42
tp4177
a(I1
I1
tp4178
a(I0
I6
tp4179
a(I1
I1
tp4180
a(I0
I24
tp4181
a(I1
I1
tp4182
a(I0
I6
tp4183
a(I1
I1
tp4184
a(I0
I9
tp4185
aa(lp4186
(I4
I7
tp4187
a(I0
I13
tp4188
a(I1
I1
tp4189
a(I0
I48
tp4190
a(I1
I1
tp4191
a(I0
I30
tp4192
aa(lp4193
(I4
I53
tp4194
a(I0
I31
tp4195
a(I1
I1
tp4196
a(I0
I6
tp4197
a(I1
I1
tp4198
a(I0
I8
tp4199
aa(lp4200
(I0
I100
tp4201
aa(lp4202
(I0
I100
tp4203
aa(lp4204
(I4
I6
tp4205
a(I0
I47
tp4206
a(I2
I1
tp4207
a(I0
I10
tp4208
a(I2
I2
tp4209
a(I0
I5
tp4210
a(I2
I1
tp4211
a(I0
I10
tp4212
a(I2
I2
tp4213
a(I0
I22
tp4214
aa(lp4215
(I4
I4
tp4216
a(I0
I41
tp4217
a(I1
I1
tp4218
a(I0
I6
tp4219
a(I1
I1
tp4220
a(I0
I6
tp4221
a(I1
I1
tp4222
a(I0
I29
tp4223
a(I4
I11
tp4224
aa(lp4225
(I0
I100
tp4226
aa(lp4227
(I0
I100
tp4228
aa(lp4229
(I4
I5
tp4230
a(I0
I19
tp4231
a(I1
I1
tp4232
a(I0
I6
tp4233
a(I1
I1
tp4234
a(I0
I39
tp4235
a(I2
I1
tp4236
a(I0
I29
tp4237
aa(lp4238
(I4
I54
tp4239
a(I0
I46
tp4240
aa(lp4241
(I0
I100
tp4242
aa(lp4243
(I0
I100
tp4244
aa(lp4245
(I4
I6
tp4246
a(I0
I31
tp4247
a(I1
I1
tp4248
a(I0
I16
tp4249
a(I4
I46
tp4250
aa(lp4251
(I4
I38
tp4252
a(I0
I17
tp4253
a(I2
I1
tp4254
a(I0
I10
tp4255
a(I2
I1
tp4256
a(I0
I11
tp4257
a(I2
I1
tp4258
a(I0
I9
tp4259
a(I4
I15
tp4260
aa(lp4261
(I0
I100
tp4262
aa(lp4263
(I0
I100
tp4264
aa(lp4265
(I0
I100
tp4266
aa(lp4267
(I4
I4
tp4268
a(I0
I51
tp4269
a(I2
I4
tp4270
a(I0
I45
tp4271
aa(lp4272
(I4
I12
tp4273
a(I0
I41
tp4274
a(I1
I2
tp4275
a(I0
I45
tp4276
aa(lp4277
(I0
I100
tp4278
aa(lp4279
(I4
I7
tp4280
a(I0
I55
tp4281
a(I1
I1
tp4282
a(I0
I37
tp4283
aa(lp4284
(I4
I27
tp4285
a(I0
I13
tp4286
a(I1
I1
tp4287
a(I0
I6
tp4288
a(I1
I1
tp4289
a(I0
I52
tp4290
aa(lp4291
(I5
I81
tp4292
a(I0
I19
tp4293
aa(lp4294
(I0
I51
tp4295
a(I1
I1
tp4296
a(I0
I48
tp4297
aa(lp4298
(I0
I100
tp4299
aa(lp4300
(I0
I100
tp4301
aa(lp4302
(I0
I100
tp4303
aa(lp4304
(I0
I100
tp4305
aa(lp4306
(I4
I7
tp4307
a(I0
I46
tp4308
a(I1
I1
tp4309
a(I0
I36
tp4310
a(I4
I10
tp4311
aa(lp4312
(I4
I23
tp4313
a(I0
I35
tp4314
a(I2
I1
tp4315
a(I0
I11
tp4316
a(I4
I31
tp4317
aa(lp4318
(I4
I8
tp4319
a(I0
I19
tp4320
a(I1
I1
tp4321
a(I0
I18
tp4322
a(I1
I1
tp4323
a(I0
I18
tp4324
a(I1
I1
tp4325
a(I0
I18
tp4326
a(I1
I1
tp4327
a(I0
I15
tp4328
aa(lp4329
(I0
I17
tp4330
a(I1
I1
tp4331
a(I0
I18
tp4332
a(I1
I1
tp4333
a(I0
I18
tp4334
a(I1
I1
tp4335
a(I0
I18
tp4336
a(I1
I1
tp4337
a(I0
I21
tp4338
a(I1
I1
tp4339
a(I0
I3
tp4340
aa(lp4341
(I4
I21
tp4342
a(I0
I26
tp4343
a(I4
I53
tp4344
aa(lp4345
(I4
I75
tp4346
a(I0
I25
tp4347
aa(lp4348
(I0
I100
tp4349
aa(lp4350
(I0
I100
tp4351
aa(lp4352
(I0
I100
tp4353
aa(lp4354
(I0
I100
tp4355
aa(lp4356
(I0
I12
tp4357
a(I2
I1
tp4358
a(I0
I88
tp4359
aa(lp4360
(I0
I100
tp4361
aa(lp4362
(I0
I100
tp4363
aa(lp4364
(I0
I100
tp4365
aa(lp4366
(I0
I100
tp4367
aa(lp4368
(I4
I14
tp4369
a(I0
I25
tp4370
a(I1
I1
tp4371
a(I0
I6
tp4372
a(I1
I1
tp4373
a(I0
I6
tp4374
a(I1
I1
tp4375
a(I0
I46
tp4376
aa(lp4377
(I4
I8
tp4378
a(I0
I46
tp4379
a(I4
I46
tp4380
aa(lp4381
(I4
I73
tp4382
a(I0
I23
tp4383
a(I4
I4
tp4384
aa(lp4385
(I4
I20
tp4386
a(I0
I37
tp4387
a(I1
I1
tp4388
a(I0
I24
tp4389
a(I1
I1
tp4390
a(I0
I15
tp4391
a(I4
I2
tp4392
aa(lp4393
(I4
I7
tp4394
a(I0
I31
tp4395
a(I2
I1
tp4396
a(I0
I50
tp4397
a(I4
I12
tp4398
aa(lp4399
(I4
I62
tp4400
a(I0
I35
tp4401
a(I4
I3
tp4402
aa(lp4403
(I4
I13
tp4404
a(I0
I13
tp4405
a(I1
I1
tp4406
a(I0
I40
tp4407
a(I1
I1
tp4408
a(I0
I24
tp4409
a(I4
I8
tp4410
aa(lp4411
(I4
I6
tp4412
a(I0
I25
tp4413
a(I1
I1
tp4414
a(I0
I6
tp4415
a(I1
I1
tp4416
a(I0
I61
tp4417
aa(lp4418
(I0
I100
tp4419
aa(lp4420
(I0
I100
tp4421
aa(lp4422
(I0
I100
tp4423
aa(lp4424
(I0
I100
tp4425
aa(lp4426
(I0
I100
tp4427
aa(lp4428
(I0
I100
tp4429
aa(lp4430
(I0
I100
tp4431
aa(lp4432
(I0
I100
tp4433
aa(lp4434
(I0
I100
tp4435
aa(lp4436
(I4
I8
tp4437
a(I0
I92
tp4438
aa(lp4439
(I0
I78
tp4440
a(I4
I22
tp4441
aa(lp4442
(I4
I3
tp4443
a(I0
I13
tp4444
a(I1
I1
tp4445
a(I0
I12
tp4446
a(I1
I1
tp4447
a(I0
I6
tp4448
a(I1
I1
tp4449
a(I0
I27
tp4450
a(I1
I1
tp4451
a(I0
I28
tp4452
a(I2
I3
tp4453
a(I0
I7
tp4454
aa(lp4455
(I4
I29
tp4456
a(I0
I38
tp4457
a(I1
I6
tp4458
a(I0
I15
tp4459
a(I4
I12
tp4460
aa(lp4461
(I0
I100
tp4462
aa(lp4463
(I0
I100
tp4464
aa(lp4465
(I4
I15
tp4466
a(I0
I19
tp4467
a(I1
I1
tp4468
a(I0
I18
tp4469
a(I1
I1
tp4470
a(I0
I18
tp4471
a(I1
I1
tp4472
a(I0
I18
tp4473
a(I1
I1
tp4474
a(I0
I8
tp4475
aa(lp4476
(I4
I70
tp4477
a(I0
I19
tp4478
a(I1
I1
tp4479
a(I0
I10
tp4480
aa(lp4481
(I4
I14
tp4482
a(I0
I86
tp4483
aa(lp4484
(I0
I86
tp4485
a(I4
I14
tp4486
aa(lp4487
(I0
I100
tp4488
aa(lp4489
(I0
I100
tp4490
aa(lp4491
(I0
I100
tp4492
aa(lp4493
(I0
I100
tp4494
aa(lp4495
(I0
I100
tp4496
aa(lp4497
(I0
I100
tp4498
aa(lp4499
(I0
I100
tp4500
aa(lp4501
(I0
I100
tp4502
aa(lp4503
(I4
I7
tp4504
a(I0
I71
tp4505
a(I4
I22
tp4506
aa(lp4507
(I4
I36
tp4508
a(I0
I42
tp4509
a(I1
I1
tp4510
a(I0
I21
tp4511
aa(lp4512
(I0
I100
tp4513
aa(lp4514
(I0
I100
tp4515
aa(lp4516
(I4
I32
tp4517
a(I0
I12
tp4518
a(I2
I1
tp4519
a(I0
I56
tp4520
aa(lp4521
(I0
I100
tp4522
aa(lp4523
(I0
I100
tp4524
aa(lp4525
(I0
I100
tp4526
aa(lp4527
(I4
I4
tp4528
a(I0
I76
tp4529
a(I1
I1
tp4530
a(I0
I12
tp4531
a(I1
I1
tp4532
a(I0
I6
tp4533
aa(lp4534
(I0
I100
tp4535
aa(lp4536
(I0
I27
tp4537
a(I2
I1
tp4538
a(I0
I15
tp4539
a(I2
I1
tp4540
a(I0
I7
tp4541
a(I2
I1
tp4542
a(I0
I51
tp4543
aa(lp4544
(I0
I100
tp4545
aa(lp4546
(I0
I100
tp4547
aa(lp4548
(I0
I55
tp4549
a(I1
I1
tp4550
a(I0
I18
tp4551
a(I1
I1
tp4552
a(I0
I21
tp4553
a(I4
I4
tp4554
aa(lp4555
(I4
I5
tp4556
a(I0
I17
tp4557
a(I1
I1
tp4558
a(I0
I6
tp4559
a(I1
I1
tp4560
a(I0
I6
tp4561
a(I1
I1
tp4562
a(I0
I6
tp4563
a(I1
I1
tp4564
a(I0
I26
tp4565
a(I1
I1
tp4566
a(I0
I8
tp4567
a(I1
I1
tp4568
a(I0
I4
tp4569
a(I1
I1
tp4570
a(I0
I15
tp4571
aa(lp4572
(I4
I4
tp4573
a(I0
I22
tp4574
a(I1
I1
tp4575
a(I0
I18
tp4576
a(I1
I1
tp4577
a(I0
I15
tp4578
a(I1
I1
tp4579
a(I0
I18
tp4580
a(I1
I1
tp4581
a(I0
I15
tp4582
a(I4
I4
tp4583
aa(lp4584
(I4
I7
tp4585
a(I0
I34
tp4586
a(I1
I1
tp4587
a(I0
I18
tp4588
a(I2
I1
tp4589
a(I0
I40
tp4590
aa(lp4591
(I0
I100
tp4592
aa(lp4593
(I0
I100
tp4594
aa(lp4595
(I0
I100
tp4596
aa(lp4597
(I0
I100
tp4598
aa(lp4599
(I4
I44
tp4600
a(I0
I56
tp4601
aa(lp4602
(I0
I100
tp4603
aa(lp4604
(I0
I21
tp4605
a(I2
I1
tp4606
a(I0
I46
tp4607
a(I4
I33
tp4608
aa(lp4609
(I4
I12
tp4610
a(I0
I35
tp4611
a(I2
I1
tp4612
a(I0
I37
tp4613
a(I1
I1
tp4614
a(I0
I15
tp4615
aa(lp4616
(I4
I49
tp4617
a(I0
I25
tp4618
a(I1
I1
tp4619
a(I0
I24
tp4620
a(I4
I1
tp4621
aa(lp4622
(I0
I100
tp4623
aa(lp4624
(I4
I3
tp4625
a(I0
I37
tp4626
a(I1
I1
tp4627
a(I0
I59
tp4628
aa(lp4629
(I0
I100
tp4630
aa(lp4631
(I0
I19
tp4632
a(I2
I1
tp4633
a(I0
I65
tp4634
a(I1
I1
tp4635
a(I0
I15
tp4636
aa(lp4637
(I0
I100
tp4638
aa(lp4639
(I0
I100
tp4640
aa(lp4641
(I4
I59
tp4642
a(I0
I21
tp4643
a(I2
I2
tp4644
a(I0
I10
tp4645
a(I2
I2
tp4646
a(I0
I10
tp4647
aa(lp4648
(I0
I100
tp4649
aa(lp4650
(I4
I31
tp4651
a(I0
I31
tp4652
a(I2
I2
tp4653
a(I0
I38
tp4654
aa(lp4655
(I0
I100
tp4656
aa(lp4657
(I0
I100
tp4658
aa(lp4659
(I0
I100
tp4660
aa(lp4661
(I0
I100
tp4662
aa(lp4663
(I0
I78
tp4664
a(I4
I22
tp4665
aa(lp4666
(I4
I16
tp4667
a(I0
I65
tp4668
a(I2
I1
tp4669
a(I0
I9
tp4670
a(I4
I10
tp4671
aa(lp4672
(I4
I56
tp4673
a(I0
I44
tp4674
aa(lp4675
(I0
I100
tp4676
aa(lp4677
(I0
I100
tp4678
aa(lp4679
(I4
I6
tp4680
a(I0
I43
tp4681
a(I1
I1
tp4682
a(I0
I6
tp4683
a(I1
I1
tp4684
a(I0
I43
tp4685
aa(lp4686
(I4
I17
tp4687
a(I0
I31
tp4688
a(I1
I1
tp4689
a(I0
I18
tp4690
a(I1
I1
tp4691
a(I0
I32
tp4692
aa(lp4693
(I0
I54
tp4694
a(I1
I1
tp4695
a(I0
I45
tp4696
aa(lp4697
(I0
I100
tp4698
aa(lp4699
(I4
I27
tp4700
a(I0
I60
tp4701
a(I1
I1
tp4702
a(I0
I12
tp4703
aa(lp4704
(I0
I55
tp4705
a(I4
I45
tp4706
aa(lp4707
(I4
I14
tp4708
a(I0
I71
tp4709
a(I4
I15
tp4710
aa(lp4711
(I0
I100
tp4712
aa(lp4713
(I4
I27
tp4714
a(I0
I52
tp4715
a(I2
I1
tp4716
a(I0
I21
tp4717
aa(lp4718
(I0
I100
tp4719
aa(lp4720
(I4
I13
tp4721
a(I0
I34
tp4722
a(I1
I1
tp4723
a(I0
I30
tp4724
a(I1
I1
tp4725
a(I0
I6
tp4726
a(I1
I1
tp4727
a(I0
I6
tp4728
a(I1
I1
tp4729
a(I0
I7
tp4730
aa(lp4731
(I4
I28
tp4732
a(I0
I72
tp4733
aa(lp4734
(I4
I33
tp4735
a(I0
I67
tp4736
aa(lp4737
(I0
I71
tp4738
a(I4
I29
tp4739
aa(lp4740
(I0
I58
tp4741
a(I4
I42
tp4742
aa(lp4743
(I4
I10
tp4744
a(I0
I76
tp4745
a(I4
I14
tp4746
aa(lp4747
(I0
I100
tp4748
aa(lp4749
(I0
I100
tp4750
aa(lp4751
(I0
I100
tp4752
aa(lp4753
(I0
I100
tp4754
aa(lp4755
(I0
I100
tp4756
aa(lp4757
(I0
I100
tp4758
aa(lp4759
(I4
I5
tp4760
a(I0
I45
tp4761
a(I4
I50
tp4762
aa(lp4763
(I4
I64
tp4764
a(I0
I36
tp4765
aa(lp4766
(I0
I100
tp4767
aa(lp4768
(I0
I100
tp4769
aa(lp4770
(I0
I100
tp4771
aa(lp4772
(I0
I100
tp4773
aa(lp4774
(I0
I100
tp4775
aa(lp4776
(I0
I65
tp4777
a(I4
I35
tp4778
aa(lp4779
(I4
I12
tp4780
a(I0
I41
tp4781
a(I2
I1
tp4782
a(I0
I5
tp4783
a(I2
I1
tp4784
a(I0
I5
tp4785
a(I2
I1
tp4786
a(I0
I5
tp4787
a(I2
I1
tp4788
a(I0
I32
tp4789
aa(lp4790
(I4
I17
tp4791
a(I0
I36
tp4792
a(I1
I1
tp4793
a(I0
I30
tp4794
a(I1
I1
tp4795
a(I0
I15
tp4796
aa(lp4797
(I0
I100
tp4798
aa(lp4799
(I0
I100
tp4800
aa(lp4801
(I0
I20
tp4802
a(I2
I4
tp4803
a(I0
I35
tp4804
a(I1
I1
tp4805
a(I0
I7
tp4806
a(I1
I1
tp4807
a(I0
I36
tp4808
aa(lp4809
(I0
I100
tp4810
aa(lp4811
(I0
I100
tp4812
aa(lp4813
(I0
I40
tp4814
a(I2
I3
tp4815
a(I0
I60
tp4816
aa(lp4817
(I4
I21
tp4818
a(I0
I79
tp4819
aa(lp4820
(I0
I100
tp4821
aa(lp4822
(I0
I71
tp4823
a(I1
I2
tp4824
a(I0
I27
tp4825
aa(lp4826
(I4
I9
tp4827
a(I0
I40
tp4828
a(I1
I1
tp4829
a(I0
I50
tp4830
aa(lp4831
(I4
I22
tp4832
a(I0
I49
tp4833
a(I1
I2
tp4834
a(I0
I27
tp4835
aa(lp4836
(I0
I100
tp4837
aa(lp4838
(I4
I12
tp4839
a(I0
I16
tp4840
a(I1
I1
tp4841
a(I0
I6
tp4842
a(I1
I1
tp4843
a(I0
I23
tp4844
a(I1
I1
tp4845
a(I0
I14
tp4846
a(I4
I26
tp4847
aa(lp4848
(I4
I21
tp4849
a(I0
I50
tp4850
a(I1
I1
tp4851
a(I0
I6
tp4852
a(I1
I1
tp4853
a(I0
I17
tp4854
a(I4
I4
tp4855
aa(lp4856
(I0
I100
tp4857
aa(lp4858
(I0
I100
tp4859
aa(lp4860
(I0
I100
tp4861
aa(lp4862
(I0
I100
tp4863
aa(lp4864
(I0
I100
tp4865
aa(lp4866
(I0
I100
tp4867
aa(lp4868
(I0
I100
tp4869
aa(lp4870
(I0
I100
tp4871
aa(lp4872
(I0
I100
tp4873
aa(lp4874
(I0
I100
tp4875
aa(lp4876
(I0
I100
tp4877
aa(lp4878
(I0
I100
tp4879
aa(lp4880
(I0
I50
tp4881
a(I2
I4
tp4882
a(I0
I14
tp4883
a(I2
I4
tp4884
a(I0
I36
tp4885
aa(lp4886
(I0
I100
tp4887
aa(lp4888
(I0
I100
tp4889
aa(lp4890
(I0
I100
tp4891
aa(lp4892
(I0
I100
tp4893
aa(lp4894
(I0
I100
tp4895
aa(lp4896
(I0
I100
tp4897
aa(lp4898
(I4
I3
tp4899
a(I0
I43
tp4900
a(I1
I1
tp4901
a(I0
I6
tp4902
a(I1
I1
tp4903
a(I0
I6
tp4904
a(I1
I1
tp4905
a(I0
I16
tp4906
a(I1
I1
tp4907
a(I0
I6
tp4908
a(I1
I1
tp4909
a(I0
I6
tp4910
a(I1
I1
tp4911
a(I0
I8
tp4912
aa(lp4913
(I4
I30
tp4914
a(I0
I35
tp4915
a(I1
I1
tp4916
a(I0
I6
tp4917
a(I1
I1
tp4918
a(I0
I27
tp4919
aa(lp4920
(I0
I100
tp4921
aa(lp4922
(I0
I100
tp4923
aa(lp4924
(I0
I100
tp4925
aa(lp4926
(I0
I100
tp4927
aa(lp4928
(I0
I100
tp4929
aa(lp4930
(I0
I100
tp4931
aa(lp4932
(I0
I100
tp4933
aa(lp4934
(I4
I28
tp4935
a(I0
I72
tp4936
aa(lp4937
(I0
I83
tp4938
a(I4
I17
tp4939
aa(lp4940
(I0
I100
tp4941
aa(lp4942
(I0
I100
tp4943
aa(lp4944
(I0
I100
tp4945
aa(lp4946
(I0
I100
tp4947
aa(lp4948
(I4
I65
tp4949
a(I0
I27
tp4950
a(I2
I2
tp4951
a(I0
I8
tp4952
aa(lp4953
(I4
I66
tp4954
a(I0
I34
tp4955
aa(lp4956
(I4
I4
tp4957
a(I0
I96
tp4958
aa(lp4959
(I4
I8
tp4960
a(I0
I67
tp4961
a(I1
I1
tp4962
a(I0
I6
tp4963
a(I1
I1
tp4964
a(I0
I6
tp4965
a(I1
I1
tp4966
a(I0
I10
tp4967
aa(lp4968
(I0
I48
tp4969
a(I2
I4
tp4970
a(I0
I20
tp4971
a(I2
I4
tp4972
a(I0
I32
tp4973
aa(lp4974
(I0
I19
tp4975
a(I2
I3
tp4976
a(I0
I32
tp4977
a(I2
I3
tp4978
a(I0
I49
tp4979
aa(lp4980
(I4
I2
tp4981
a(I0
I98
tp4982
aa(lp4983
(I4
I10
tp4984
a(I0
I90
tp4985
aa(lp4986
(I0
I100
tp4987
aa(lp4988
(I0
I100
tp4989
aa(lp4990
(I0
I100
tp4991
aa(lp4992
(I0
I100
tp4993
aa(lp4994
(I0
I13
tp4995
a(I1
I1
tp4996
a(I0
I86
tp4997
aa(lp4998
(I4
I39
tp4999
a(I0
I34
tp5000
a(I1
I1
tp5001
a(I0
I26
tp5002
aa(lp5003
(I0
I100
tp5004
aa(lp5005
(I0
I100
tp5006
aa(lp5007
(I0
I100
tp5008
aa(lp5009
(I0
I100
tp5010
aa(lp5011
(I0
I100
tp5012
aa(lp5013
(I0
I100
tp5014
aa(lp5015
(I4
I67
tp5016
a(I0
I24
tp5017
a(I4
I9
tp5018
aa(lp5019
(I4
I18
tp5020
a(I0
I29
tp5021
a(I2
I1
tp5022
a(I0
I17
tp5023
a(I2
I1
tp5024
a(I0
I34
tp5025
a(I4
I2
tp5026
aa(lp5027
(I0
I100
tp5028
aa(lp5029
(I0
I100
tp5030
aa(lp5031
(I4
I9
tp5032
a(I0
I37
tp5033
a(I1
I3
tp5034
a(I0
I31
tp5035
a(I2
I3
tp5036
a(I0
I20
tp5037
aa(lp5038
(I0
I8
tp5039
a(I2
I4
tp5040
a(I0
I92
tp5041
aa(lp5042
(I4
I4
tp5043
a(I0
I49
tp5044
a(I1
I1
tp5045
a(I0
I46
tp5046
aa(lp5047
(I4
I3
tp5048
a(I0
I83
tp5049
a(I2
I1
tp5050
a(I0
I14
tp5051
aa(lp5052
(I4
I4
tp5053
a(I0
I31
tp5054
a(I4
I65
tp5055
aa(lp5056
(I4
I17
tp5057
a(I0
I29
tp5058
a(I1
I1
tp5059
a(I0
I21
tp5060
a(I1
I1
tp5061
a(I0
I16
tp5062
a(I4
I15
tp5063
aa(lp5064
(I4
I9
tp5065
a(I0
I55
tp5066
a(I1
I1
tp5067
a(I0
I12
tp5068
a(I1
I1
tp5069
a(I0
I22
tp5070
aa(lp5071
(I4
I52
tp5072
a(I0
I23
tp5073
a(I2
I1
tp5074
a(I0
I25
tp5075
aa(lp5076
(I0
I100
tp5077
aa(lp5078
(I0
I100
tp5079
aa(lp5080
(I0
I100
tp5081
aa(lp5082
(I4
I26
tp5083
a(I0
I46
tp5084
a(I4
I28
tp5085
aa(lp5086
(I0
I100
tp5087
aa(lp5088
(I4
I37
tp5089
a(I0
I51
tp5090
a(I2
I1
tp5091
a(I0
I12
tp5092
aa(lp5093
(I4
I15
tp5094
a(I0
I68
tp5095
a(I4
I17
tp5096
aa(lp5097
(I0
I100
tp5098
aa(lp5099
(I0
I100
tp5100
aa(lp5101
(I0
I100
tp5102
aa(lp5103
(I0
I100
tp5104
aa(lp5105
(I0
I100
tp5106
aa(lp5107
(I4
I5
tp5108
a(I0
I95
tp5109
aa(lp5110
(I4
I69
tp5111
a(I0
I31
tp5112
aa(lp5113
(I4
I4
tp5114
a(I0
I67
tp5115
a(I1
I1
tp5116
a(I0
I28
tp5117
aa(lp5118
(I4
I53
tp5119
a(I0
I47
tp5120
aa(lp5121
(I4
I7
tp5122
a(I0
I41
tp5123
a(I2
I1
tp5124
a(I0
I5
tp5125
a(I2
I1
tp5126
a(I0
I5
tp5127
a(I2
I1
tp5128
a(I0
I5
tp5129
a(I2
I1
tp5130
a(I0
I37
tp5131
aa(lp5132
(I4
I8
tp5133
a(I0
I31
tp5134
a(I1
I1
tp5135
a(I0
I30
tp5136
a(I1
I1
tp5137
a(I0
I29
tp5138
aa(lp5139
(I0
I100
tp5140
aa(lp5141
(I0
I100
tp5142
aa(lp5143
(I0
I100
tp5144
aa(lp5145
(I0
I100
tp5146
aa(lp5147
(I0
I96
tp5148
a(I4
I4
tp5149
aa(lp5150
(I0
I100
tp5151
aa(lp5152
(I4
I13
tp5153
a(I0
I37
tp5154
a(I1
I1
tp5155
a(I0
I6
tp5156
a(I1
I1
tp5157
a(I0
I42
tp5158
aa(lp5159
(I4
I14
tp5160
a(I0
I40
tp5161
a(I1
I1
tp5162
a(I0
I45
tp5163
aa(lp5164
(I4
I2
tp5165
a(I0
I98
tp5166
aa(lp5167
(I0
I31
tp5168
a(I1
I1
tp5169
a(I0
I6
tp5170
a(I1
I1
tp5171
a(I0
I6
tp5172
a(I1
I1
tp5173
a(I0
I54
tp5174
aa(lp5175
(I0
I100
tp5176
aa(lp5177
(I0
I100
tp5178
aa(lp5179
(I0
I100
tp5180
aa(lp5181
(I0
I100
tp5182
aa(lp5183
(I4
I13
tp5184
a(I0
I29
tp5185
a(I2
I1
tp5186
a(I0
I35
tp5187
a(I2
I1
tp5188
a(I0
I23
tp5189
aa(lp5190
(I0
I85
tp5191
a(I4
I15
tp5192
aa(lp5193
(I4
I5
tp5194
a(I0
I42
tp5195
a(I1
I5
tp5196
a(I0
I4
tp5197
a(I2
I1
tp5198
a(I0
I23
tp5199
a(I4
I21
tp5200
aa(lp5201
(I4
I27
tp5202
a(I0
I54
tp5203
a(I2
I1
tp5204
a(I0
I19
tp5205
aa(lp5206
(I4
I5
tp5207
a(I0
I95
tp5208
aa(lp5209
(I4
I10
tp5210
a(I0
I34
tp5211
a(I2
I1
tp5212
a(I0
I44
tp5213
a(I1
I1
tp5214
a(I0
I11
tp5215
aa(lp5216
(I0
I100
tp5217
aa(lp5218
(I4
I50
tp5219
a(I0
I50
tp5220
aa(lp5221
(I4
I14
tp5222
a(I0
I86
tp5223
aa(lp5224
(I0
I87
tp5225
a(I4
I13
tp5226
aa(lp5227
(I0
I100
tp5228
aa(lp5229
(I0
I100
tp5230
aa(lp5231
(I4
I23
tp5232
a(I0
I34
tp5233
a(I1
I1
tp5234
a(I0
I31
tp5235
a(I4
I11
tp5236
aa(lp5237
(I4
I68
tp5238
a(I0
I32
tp5239
aa(lp5240
(I0
I100
tp5241
aa(lp5242
(I0
I100
tp5243
aa(lp5244
(I0
I100
tp5245
aa(lp5246
(I0
I100
tp5247
aa(lp5248
(I0
I100
tp5249
aa(lp5250
(I0
I100
tp5251
aa(lp5252
(I0
I100
tp5253
aa(lp5254
(I0
I100
tp5255
aa(lp5256
(I4
I14
tp5257
a(I0
I48
tp5258
a(I2
I1
tp5259
a(I0
I38
tp5260
aa(lp5261
(I0
I50
tp5262
a(I1
I1
tp5263
a(I0
I43
tp5264
a(I1
I1
tp5265
a(I0
I5
tp5266
aa(lp5267
(I4
I10
tp5268
a(I0
I19
tp5269
a(I1
I1
tp5270
a(I0
I18
tp5271
a(I1
I1
tp5272
a(I0
I18
tp5273
a(I1
I1
tp5274
a(I0
I18
tp5275
a(I1
I1
tp5276
a(I0
I13
tp5277
aa(lp5278
(I4
I28
tp5279
a(I0
I19
tp5280
a(I1
I1
tp5281
a(I0
I18
tp5282
a(I1
I1
tp5283
a(I0
I21
tp5284
a(I1
I1
tp5285
a(I0
I11
tp5286
aa(lp5287
(I0
I13
tp5288
a(I1
I1
tp5289
a(I0
I6
tp5290
a(I1
I1
tp5291
a(I0
I42
tp5292
a(I1
I1
tp5293
a(I0
I28
tp5294
a(I4
I8
tp5295
aa(lp5296
(I0
I19
tp5297
a(I1
I1
tp5298
a(I0
I48
tp5299
a(I1
I1
tp5300
a(I0
I6
tp5301
a(I1
I1
tp5302
a(I0
I6
tp5303
a(I1
I1
tp5304
a(I0
I17
tp5305
aa(lp5306
(I4
I13
tp5307
a(I0
I87
tp5308
aa(lp5309
(I4
I57
tp5310
a(I0
I43
tp5311
aa(lp5312
(I0
I100
tp5313
aa(lp5314
(I0
I100
tp5315
aa(lp5316
(I0
I100
tp5317
aa(lp5318
(I0
I100
tp5319
aa(lp5320
(I0
I100
tp5321
aa(lp5322
(I0
I83
tp5323
a(I4
I17
tp5324
aa(lp5325
(I4
I3
tp5326
a(I0
I79
tp5327
a(I1
I1
tp5328
a(I0
I17
tp5329
aa(lp5330
(I0
I100
tp5331
aa(lp5332
(I0
I100
tp5333
aa(lp5334
(I0
I100
tp5335
aa(lp5336
(I0
I100
tp5337
aa(lp5338
(I0
I100
tp5339
aa(lp5340
(I0
I49
tp5341
a(I1
I1
tp5342
a(I0
I12
tp5343
a(I1
I1
tp5344
a(I0
I37
tp5345
aa(lp5346
(I4
I61
tp5347
a(I0
I35
tp5348
a(I4
I4
tp5349
aa(lp5350
(I0
I100
tp5351
aa(lp5352
(I0
I100
tp5353
aa(lp5354
(I0
I100
tp5355
aa(lp5356
(I0
I63
tp5357
a(I2
I4
tp5358
a(I0
I37
tp5359
aa(lp5360
(I0
I100
tp5361
aa(lp5362
(I4
I5
tp5363
a(I0
I55
tp5364
a(I1
I2
tp5365
a(I0
I38
tp5366
aa(lp5367
(I4
I14
tp5368
a(I0
I19
tp5369
a(I1
I1
tp5370
a(I0
I51
tp5371
a(I4
I15
tp5372
aa(lp5373
(I4
I29
tp5374
a(I0
I39
tp5375
a(I2
I2
tp5376
a(I0
I32
tp5377
aa(lp5378
(I4
I21
tp5379
a(I0
I42
tp5380
a(I2
I1
tp5381
a(I0
I7
tp5382
a(I1
I1
tp5383
a(I0
I6
tp5384
a(I1
I1
tp5385
a(I0
I20
tp5386
a(I4
I2
tp5387
aa(lp5388
(I0
I48
tp5389
a(I2
I4
tp5390
a(I0
I8
tp5391
a(I2
I4
tp5392
a(I0
I44
tp5393
aa(lp5394
(I4
I43
tp5395
a(I0
I11
tp5396
a(I2
I2
tp5397
a(I0
I46
tp5398
aa(lp5399
(I0
I24
tp5400
a(I1
I1
tp5401
a(I0
I37
tp5402
a(I2
I1
tp5403
a(I0
I34
tp5404
a(I4
I4
tp5405
aa(lp5406
(I4
I10
tp5407
a(I0
I90
tp5408
aa(lp5409
(I0
I83
tp5410
a(I4
I17
tp5411
aa(lp5412
(I4
I11
tp5413
a(I0
I35
tp5414
a(I1
I1
tp5415
a(I0
I19
tp5416
a(I4
I34
tp5417
aa(lp5418
(I4
I59
tp5419
a(I0
I25
tp5420
a(I1
I1
tp5421
a(I0
I15
tp5422
aa(lp5423
(I4
I64
tp5424
a(I0
I27
tp5425
a(I2
I2
tp5426
a(I0
I9
tp5427
aa(lp5428
(I0
I44
tp5429
a(I1
I1
tp5430
a(I0
I21
tp5431
a(I4
I34
tp5432
aa(lp5433
(I4
I12
tp5434
a(I0
I19
tp5435
a(I1
I1
tp5436
a(I0
I18
tp5437
a(I1
I1
tp5438
a(I0
I18
tp5439
a(I1
I1
tp5440
a(I0
I18
tp5441
a(I1
I1
tp5442
a(I0
I11
tp5443
aa(lp5444
(I4
I9
tp5445
a(I0
I19
tp5446
a(I1
I1
tp5447
a(I0
I18
tp5448
a(I1
I1
tp5449
a(I0
I18
tp5450
a(I1
I1
tp5451
a(I0
I18
tp5452
a(I1
I1
tp5453
a(I0
I14
tp5454
aa(lp5455
(I0
I100
tp5456
aa(lp5457
(I0
I100
tp5458
aa(lp5459
(I4
I4
tp5460
a(I0
I96
tp5461
aa(lp5462
(I0
I100
tp5463
aa(lp5464
(I4
I6
tp5465
a(I0
I52
tp5466
a(I1
I1
tp5467
a(I0
I41
tp5468
aa(lp5469
(I4
I16
tp5470
a(I0
I40
tp5471
a(I1
I1
tp5472
a(I0
I36
tp5473
a(I4
I7
tp5474
aa(lp5475
(I0
I100
tp5476
aa(lp5477
(I0
I100
tp5478
aa(lp5479
(I0
I100
tp5480
aa(lp5481
(I0
I96
tp5482
a(I4
I4
tp5483
aa(lp5484
(I0
I100
tp5485
aa(lp5486
(I0
I88
tp5487
a(I2
I2
tp5488
a(I0
I12
tp5489
aa(lp5490
(I0
I3
tp5491
a(I1
I1
tp5492
a(I0
I96
tp5493
aa(lp5494
(I4
I6
tp5495
a(I0
I48
tp5496
a(I4
I46
tp5497
aa(lp5498
(I4
I20
tp5499
a(I0
I61
tp5500
a(I4
I19
tp5501
aa(lp5502
(I4
I74
tp5503
a(I0
I26
tp5504
aa(lp5505
(I0
I69
tp5506
a(I4
I31
tp5507
aa(lp5508
(I0
I100
tp5509
aa(lp5510
(I4
I20
tp5511
a(I0
I13
tp5512
a(I1
I1
tp5513
a(I0
I40
tp5514
a(I1
I1
tp5515
a(I0
I25
tp5516
aa(lp5517
(I4
I69
tp5518
a(I0
I31
tp5519
aa(lp5520
(I0
I100
tp5521
aa(lp5522
(I4
I5
tp5523
a(I0
I19
tp5524
a(I1
I1
tp5525
a(I0
I18
tp5526
a(I1
I1
tp5527
a(I0
I17
tp5528
a(I1
I1
tp5529
a(I0
I19
tp5530
a(I1
I1
tp5531
a(I0
I18
tp5532
aa(lp5533
(I0
I100
tp5534
aa(lp5535
(I4
I54
tp5536
a(I0
I36
tp5537
a(I1
I1
tp5538
a(I0
I9
tp5539
aa(lp5540
(I4
I22
tp5541
a(I0
I34
tp5542
a(I1
I1
tp5543
a(I0
I30
tp5544
a(I1
I1
tp5545
a(I0
I12
tp5546
aa(lp5547
(I4
I45
tp5548
a(I0
I55
tp5549
aa(lp5550
(I0
I100
tp5551
aa(lp5552
(I0
I100
tp5553
aa(lp5554
(I4
I11
tp5555
a(I0
I46
tp5556
a(I2
I1
tp5557
a(I0
I43
tp5558
aa(lp5559
(I0
I48
tp5560
a(I4
I52
tp5561
aa(lp5562
(I0
I100
tp5563
aa(lp5564
(I0
I100
tp5565
aa(lp5566
(I4
I4
tp5567
a(I0
I40
tp5568
a(I1
I1
tp5569
a(I0
I31
tp5570
a(I1
I1
tp5571
a(I0
I23
tp5572
aa(lp5573
(I4
I8
tp5574
a(I0
I19
tp5575
a(I1
I1
tp5576
a(I0
I12
tp5577
a(I1
I1
tp5578
a(I0
I40
tp5579
a(I4
I19
tp5580
aa(lp5581
(I0
I35
tp5582
a(I2
I1
tp5583
a(I0
I43
tp5584
a(I2
I1
tp5585
a(I0
I22
tp5586
aa(lp5587
(I0
I100
tp5588
aa(lp5589
(I4
I30
tp5590
a(I0
I50
tp5591
a(I1
I1
tp5592
a(I0
I19
tp5593
aa(lp5594
(I0
I100
tp5595
aa(lp5596
(I0
I100
tp5597
aa(lp5598
(I0
I100
tp5599
aa(lp5600
(I4
I7
tp5601
a(I0
I85
tp5602
a(I1
I1
tp5603
a(I0
I7
tp5604
aa(lp5605
(I4
I16
tp5606
a(I0
I84
tp5607
aa(lp5608
(I0
I100
tp5609
aa(lp5610
(I0
I100
tp5611
aa(lp5612
(I4
I3
tp5613
a(I0
I97
tp5614
aa(lp5615
(I0
I100
tp5616
aa(lp5617
(I4
I3
tp5618
a(I0
I77
tp5619
a(I2
I1
tp5620
a(I0
I11
tp5621
a(I2
I1
tp5622
a(I0
I9
tp5623
aa(lp5624
(I0
I100
tp5625
aa(lp5626
(I0
I13
tp5627
a(I1
I1
tp5628
a(I0
I37
tp5629
a(I2
I3
tp5630
a(I0
I21
tp5631
a(I2
I3
tp5632
a(I0
I28
tp5633
aa(lp5634
(I0
I100
tp5635
aa(lp5636
(I0
I28
tp5637
a(I1
I1
tp5638
a(I0
I6
tp5639
a(I1
I1
tp5640
a(I0
I64
tp5641
aa(lp5642
(I0
I100
tp5643
aa(lp5644
(I4
I11
tp5645
a(I0
I89
tp5646
aa(lp5647
(I4
I50
tp5648
a(I0
I50
tp5649
aa(lp5650
(I4
I11
tp5651
a(I0
I68
tp5652
a(I4
I21
tp5653
aa(lp5654
(I4
I45
tp5655
a(I0
I42
tp5656
a(I4
I13
tp5657
aa(lp5658
(I0
I100
tp5659
aa(lp5660
(I0
I100
tp5661
aa(lp5662
(I4
I14
tp5663
a(I0
I17
tp5664
a(I1
I1
tp5665
a(I0
I6
tp5666
a(I1
I1
tp5667
a(I0
I61
tp5668
aa(lp5669
(I4
I3
tp5670
a(I0
I97
tp5671
aa(lp5672
(I0
I12
tp5673
a(I2
I1
tp5674
a(I0
I56
tp5675
a(I1
I1
tp5676
a(I0
I31
tp5677
aa(lp5678
(I0
I100
tp5679
aa(lp5680
(I0
I100
tp5681
aa(lp5682
(I4
I3
tp5683
a(I0
I19
tp5684
a(I1
I1
tp5685
a(I0
I18
tp5686
a(I1
I1
tp5687
a(I0
I18
tp5688
a(I1
I1
tp5689
a(I0
I18
tp5690
a(I1
I1
tp5691
a(I0
I20
tp5692
aa(lp5693
(I0
I18
tp5694
a(I1
I1
tp5695
a(I0
I18
tp5696
a(I1
I1
tp5697
a(I0
I18
tp5698
a(I1
I1
tp5699
a(I0
I18
tp5700
a(I1
I1
tp5701
a(I0
I21
tp5702
a(I4
I3
tp5703
aa(lp5704
(I0
I100
tp5705
aa(lp5706
(I4
I11
tp5707
a(I0
I89
tp5708
aa(lp5709
(I4
I8
tp5710
a(I0
I58
tp5711
a(I4
I34
tp5712
aa(lp5713
(I4
I39
tp5714
a(I0
I16
tp5715
a(I1
I1
tp5716
a(I0
I40
tp5717
a(I4
I4
tp5718
aa(lp5719
(I4
I44
tp5720
a(I0
I56
tp5721
aa(lp5722
(I0
I47
tp5723
a(I4
I53
tp5724
aa(lp5725
(I0
I25
tp5726
a(I1
I1
tp5727
a(I0
I6
tp5728
a(I1
I1
tp5729
a(I0
I52
tp5730
a(I4
I15
tp5731
aa(lp5732
(I4
I10
tp5733
a(I0
I19
tp5734
a(I1
I1
tp5735
a(I0
I18
tp5736
a(I1
I1
tp5737
a(I0
I18
tp5738
a(I1
I1
tp5739
a(I0
I18
tp5740
a(I1
I1
tp5741
a(I0
I13
tp5742
aa(lp5743
(I4
I11
tp5744
a(I0
I19
tp5745
a(I1
I1
tp5746
a(I0
I18
tp5747
a(I1
I1
tp5748
a(I0
I18
tp5749
a(I1
I1
tp5750
a(I0
I18
tp5751
a(I1
I1
tp5752
a(I0
I12
tp5753
aa(lp5754
(I0
I100
tp5755
aa(lp5756
(I0
I100
tp5757
aa(lp5758
(I4
I3
tp5759
a(I0
I49
tp5760
a(I1
I1
tp5761
a(I0
I47
tp5762
aa(lp5763
(I4
I22
tp5764
a(I0
I76
tp5765
a(I4
I2
tp5766
aa(lp5767
(I4
I23
tp5768
a(I0
I52
tp5769
a(I1
I1
tp5770
a(I0
I24
tp5771
aa(lp5772
(I0
I39
tp5773
a(I2
I1
tp5774
a(I0
I50
tp5775
a(I4
I11
tp5776
aa(lp5777
(I4
I3
tp5778
a(I0
I97
tp5779
aa(lp5780
(I0
I100
tp5781
aa(lp5782
(I4
I13
tp5783
a(I0
I45
tp5784
a(I4
I42
tp5785
aa(lp5786
(I4
I13
tp5787
a(I0
I9
tp5788
a(I1
I1
tp5789
a(I0
I27
tp5790
a(I1
I1
tp5791
a(I0
I21
tp5792
a(I1
I1
tp5793
a(I0
I16
tp5794
a(I4
I11
tp5795
aa.